(dp0
S'controlComponentYields'
p1
(dp2
S'FPF'
p3
(dp4
S'eee'
p5
(dp6
S'VVV'
p7
F0.00032761167949502124
sS'ZG'
p8
F0.01531671267002821
sS'TTV'
p9
F0.0004671512915592757
sS'ZZ'
p10
F0.002844761373125948
sS'data'
p11
F-0.38949474692344666
sS'WZ'
p12
F0.024349121376872063
ssS'eem'
p13
(dp14
g7
F0.0005716531331927399
sg8
F0.045155592262744904
sg9
F0.0032059967052191496
sg10
F0.005960621012491174
sg11
F-0.5033571720123291
sg12
F0.02981586381793022
ssS'mmm'
p15
(dp16
g7
F0.0009829052251006942
sg8
F0.09812634438276291
sg9
F0.0008355246391147375
sg10
F0.005294023503665812
sg11
F-0.7265756130218506
sg12
F0.06961330771446228
ssS'mme'
p17
(dp18
g7
F0.00017293878227064852
sg8
F0.03269908204674721
sg9
F0.0035579227842390537
sg10
F0.00212852300319355
sg11
F-0.22242778539657593
sg12
F0.021270526573061943
ssS'wz'
p19
(dp20
g7
F0.002055108820059104
sg8
F0.19129773136228323
sg9
F0.008066595420132217
sg10
F0.016227928892476484
sg11
F-1.8418553173542023
sg12
F0.1450488194823265
sssS'PPF'
p21
(dp22
g5
(dp23
g7
F-0.014123460976406932
sg8
F-0.11183664947748184
sg9
F-0.024532239185646176
sg10
F-0.11190980701549336
sg11
F11.013927459716797
sg12
F-0.9864687919616699
ssg13
(dp24
g7
F-0.023209836683236063
sg8
F0.017007455229759216
sg9
F-0.08919228473678231
sg10
F-0.1953385644222081
sg11
F15.224560737609863
sg12
F-1.6651861667633057
ssg15
(dp25
g7
F-0.04505454679019749
sg8
F0.007956641726195812
sg9
F-0.1152220806106925
sg10
F-0.28739151649634387
sg11
F22.12915462255478
sg12
F-2.6811113357543945
ssg17
(dp26
g7
F-0.02526304661296308
sg8
F-0.24391548335552216
sg9
F-0.029441245133057237
sg10
F-0.16544379284346178
sg11
F18.562074452638626
sg12
F-1.7001848220825195
ssg19
(dp27
g7
F-0.10765089106280357
sg8
F-0.33078803587704897
sg9
F-0.2583878496661782
sg10
F-0.7600836807775071
sg11
F66.92971727252007
sg12
F-7.03295111656189
sssS'PFF'
p28
(dp29
g5
(dp30
g7
F0.0006429394888982642
sg8
F0.007190066855400801
sg9
F0.0013862327105016448
sg10
F0.00475872532399535
sg11
F-0.8696860074996948
sg12
F0.0396898128092289
ssg13
(dp31
g7
F0.0021595628568320535
sg8
F0.0
sg9
F0.002407012041658163
sg10
F0.0059649950853781775
sg11
F-0.6543291807174683
sg12
F0.060073528438806534
ssg15
(dp32
g7
F0.0008780603515186058
sg8
F0.029033711180090904
sg9
F0.012994934106245637
sg10
F0.018153483703827078
sg11
F-1.47024405002594
sg12
F0.21206393837928772
ssg17
(dp33
g7
F0.0008699171448824927
sg8
F-0.0037449209485203028
sg9
F0.002420592791168019
sg10
F0.009152887484615676
sg11
F-1.4375789985060692
sg12
F0.09516653418540955
ssg19
(dp34
g7
F0.004550479842131416
sg8
F0.0324788570869714
sg9
F0.019208771649573464
sg10
F0.038030091597816285
sg11
F-4.431838236749172
sg12
F0.4069938138127327
sssS'FFP'
p35
(dp36
g5
(dp37
g7
F7.307571232129106e-05
sg8
F0.0
sg9
F-0.0010125486878678203
sg10
F0.004675879084970802
sg11
F-0.44380271434783936
sg12
F0.037882689386606216
ssg13
(dp38
g7
F4.871705141340499e-05
sg8
F0.0
sg9
F0.0031529911793768406
sg10
F0.004670891648856923
sg11
F-0.5483260154724121
sg12
F0.047994233667850494
ssg15
(dp39
g7
F0.00033091862133005634
sg8
F0.03465772792696953
sg9
F0.0060252080438658595
sg10
F0.0070389287429861724
sg11
F-1.5993937253952026
sg12
F0.04696906358003616
ssg17
(dp40
g7
F-8.993977098725736e-05
sg8
F0.0
sg9
F0.0006825184100307524
sg10
F0.0043360796553315595
sg11
F-0.3369804918766022
sg12
F0.02605871669948101
ssg19
(dp41
g7
F0.00036277161407749503
sg8
F0.03465772792696953
sg9
F0.008848168945405632
sg10
F0.020721779132145457
sg11
F-2.9285029470920563
sg12
F0.15890470333397388
sssS'PFP'
p42
(dp43
g5
(dp44
g7
F-0.018440875399392098
sg8
F-0.273674875497818
sg9
F-0.02188055426813662
sg10
F-0.13076456783528556
sg11
F3.028542995452881
sg12
F-1.3962820768356323
ssg13
(dp45
g7
F-0.027018690248951316
sg8
F-0.02779843471944332
sg9
F-0.03979857172816992
sg10
F-0.18879209867327518
sg11
F4.423095166683197
sg12
F-1.9716933965682983
ssg15
(dp46
g7
F-0.08286919817328453
sg8
F-0.21942153573036194
sg9
F-0.07821189984679222
sg10
F-0.41899769035808276
sg11
F8.76783275604248
sg12
F-3.917613983154297
ssg17
(dp47
g7
F-0.04428856051526964
sg8
F-0.18562090396881104
sg9
F-0.07700149016454816
sg10
F-0.2740751103829453
sg11
F9.696595191955566
sg12
F-2.45893931388855
ssg19
(dp48
g7
F-0.17261732433689758
sg8
F-0.7065157499164343
sg9
F-0.21689251600764692
sg10
F-1.0126294672495888
sg11
F25.916066110134125
sg12
F-9.744528770446777
sssS'FPP'
p49
(dp50
g5
(dp51
g7
F-0.017245398252271116
sg8
F0.022514708340168
sg9
F-0.016126427999552106
sg10
F-0.08792060567066073
sg11
F2.064612627029419
sg12
F-0.726872444152832
ssg13
(dp52
g7
F-0.015973527799360454
sg8
F0.0
sg9
F-0.021337610320188105
sg10
F-0.1287910925639153
sg11
F2.3176093101501465
sg12
F-1.2238606214523315
ssg15
(dp53
g7
F-0.015322579740313813
sg8
F-0.11017565429210663
sg9
F-0.024129365338012576
sg10
F-0.10101119801402092
sg11
F1.7754907608032227
sg12
F-1.1589430570602417
ssg17
(dp54
g7
F-0.012883724935818464
sg8
F-0.05669499188661575
sg9
F-0.027505391975864768
sg10
F-0.06587855261750519
sg11
F1.2465596199035645
sg12
F-0.710970401763916
ssg19
(dp55
g7
F-0.061425230727763847
sg8
F-0.14435593783855438
sg9
F-0.08909879563361756
sg10
F-0.38360144886610215
sg11
F7.4042723178863525
sg12
F-3.8206465244293213
sssS'FFF'
p56
(dp57
g5
(dp58
g7
F-4.460511604520434e-08
sg8
F0.0008719497709535062
sg9
F9.246350964531302e-05
sg10
F-7.693236284467275e-05
sg11
F0.01606842689216137
sg12
F-0.001032331376336515
ssg13
(dp59
g7
F-0.0001042943340507918
sg8
F-2.486983476046589e-06
sg9
F0.0
sg10
F-0.0004824711295441375
sg11
F0.0
sg12
F-0.0018651310820132494
ssg15
(dp60
g7
F0.0
sg8
F0.0
sg9
F0.0
sg10
F-0.0022757181104680058
sg11
F0.0
sg12
F-0.004907903727144003
ssg17
(dp61
g7
F0.0
sg8
F-0.005777388345450163
sg9
F-0.00020141401910223067
sg10
F-0.00017716226375341648
sg11
F0.0
sg12
F-0.00141204206738621
ssg19
(dp62
g7
F-0.00010433893916683701
sg8
F-0.004907925557972703
sg9
F-0.00010895050945691764
sg10
F-0.0030122838666102325
sg11
F0.01606842689216137
sg12
F-0.009217408252879977
ssssS'controlComponentErrs'
p63
(dp64
g3
(dp65
g5
(dp66
g7
F0.00013796959577331888
sg8
F0.015049895418255486
sg9
F0.00044031712449130417
sg10
F0.0003448165747256383
sg11
F0.1304678170125551
sg12
F0.0035907665603889796
ssg13
(dp67
g7
F0.0005006251163147003
sg8
F0.04515559268055823
sg9
F0.0049168502007404065
sg10
F0.0013931397624184086
sg11
F0.3619144680812027
sg12
F0.008398279741571538
ssg15
(dp68
g7
F0.0008616679510659264
sg8
F0.07445981205029877
sg9
F0.002065552403020107
sg10
F0.0013974732626641608
sg11
F0.7265756336670115
sg12
F0.020216620963001534
ssg17
(dp69
g7
F9.24781728995963e-05
sg8
F0.02925280374201831
sg9
F0.001504510658803366
sg10
F0.00032050772722038714
sg11
F0.12232366870367428
sg12
F0.0045398682359593994
ssg19
(dp70
g7
F0.00101028955591947
sg8
F0.0930887589334382
sg9
F0.005558718747941502
sg10
F0.0020286432882362375
sg11
F0.831191412880491
sg12
F0.022643914720525793
sssg21
(dp71
g5
(dp72
g7
F0.002289614055854184
sg8
F0.06098909919314159
sg9
F0.007133733615583009
sg10
F0.0034982095506696036
sg11
F1.2669899463293763
sg12
F0.03513981131504682
ssg13
(dp73
g7
F0.005862433887485834
sg8
F0.07024143225236186
sg9
F0.026866152636875244
sg10
F0.011397772032023313
sg11
F3.259659409551387
sg12
F0.110149056907959
ssg15
(dp74
g7
F0.01014115686589605
sg8
F0.0053605063372715285
sg9
F0.029403411901893682
sg10
F0.013617596431013937
sg11
F3.9675087340240163
sg12
F0.14116221682227414
ssg17
(dp75
g7
F0.0033682894425804645
sg8
F0.08961143327292391
sg9
F0.008443104989302203
sg10
F0.004160730934590633
sg11
F1.5648925473554705
sg12
F0.048890742351274184
ssg19
(dp76
g7
F0.012401568447483444
sg8
F0.1292767304145399
sg9
F0.0413343315675817
sg10
F0.01857141060400076
sg11
F5.515492473904951
sg12
F0.18890393649367737
sssg28
(dp77
g5
(dp78
g7
F0.0001765732181984972
sg8
F0.0070521652672980075
sg9
F0.0010506366931480296
sg10
F0.0003610305615692599
sg11
F0.16540103178933688
sg12
F0.0036821367776368047
ssg13
(dp79
g7
F0.0014935174535407056
sg8
F0.0
sg9
F0.00363297496583739
sg10
F0.0008553804611214203
sg11
F0.3865153702033505
sg12
F0.008614442263228083
ssg15
(dp80
g7
F0.0006573817420643041
sg8
F0.028252310397413428
sg9
F0.008693811376878404
sg10
F0.0025622479015689455
sg11
F0.7432752526489895
sg12
F0.03497611538761306
ssg17
(dp81
g7
F0.00037591595834257874
sg8
F0.004008832361404372
sg9
F0.0010776159183508269
sg10
F0.0007795029578190602
sg11
F0.32772455986647153
sg12
F0.00839355588013853
ssg19
(dp82
g7
F0.001683815918665638
sg8
F0.029393822729460048
sg9
F0.00954180050554473
sg10
F0.0028345648643131167
sg11
F0.914665578810366
sg12
F0.037169169679673326
sssg35
(dp83
g5
(dp84
g7
F0.0002779779301318833
sg8
F0.0
sg9
F0.0012674229153414672
sg10
F0.0007166260399051568
sg11
F0.1981128858346052
sg12
F0.006593912999344649
ssg13
(dp85
g7
F0.0006833505300396248
sg8
F0.0
sg9
F0.0016259261381159388
sg10
F0.0006327188632895394
sg11
F0.22291103410028426
sg12
F0.006915575217674126
ssg15
(dp86
g7
F0.0002007065124156459
sg8
F0.03461715730655113
sg9
F0.003513562296404844
sg10
F0.0016733188401923027
sg11
F0.8047155853674717
sg12
F0.013852859383563666
ssg17
(dp87
g7
F0.0015968496524898109
sg8
F0.0
sg9
F0.005280095219920266
sg10
F0.0010182880208580167
sg11
F0.33698048519963963
sg12
F0.01030747372843144
ssg19
(dp88
g7
F0.0017704382489453633
sg8
F0.03461715730655113
sg9
F0.006668922116435594
sg10
F0.0021796312705129745
sg11
F0.9219875624953249
sg12
F0.01973450270458638
sssg42
(dp89
g5
(dp90
g7
F0.003438074833674729
sg8
F0.15475467328301495
sg9
F0.010243940252422298
sg10
F0.00514540258664302
sg11
F0.7880760350237993
sg12
F0.06192201543687505
ssg13
(dp91
g7
F0.0054107708970514475
sg8
F0.044937160671667226
sg9
F0.012852999085719193
sg10
F0.006879199743098393
sg11
F0.9454629480505223
sg12
F0.07557134725807119
ssg15
(dp92
g7
F0.014059635915324897
sg8
F0.15514441231385123
sg9
F0.033985349077446936
sg10
F0.015979410556027824
sg11
F2.325621920355318
sg12
F0.16600403631570082
ssg17
(dp93
g7
F0.009927672646320915
sg8
F0.12070386113174685
sg9
F0.021318583965093896
sg10
F0.01218476853698087
sg11
F2.585944446192008
sg12
F0.12834607038165555
ssg19
(dp94
g7
F0.01836651427207484
sg8
F0.2541801882060957
sg9
F0.04335462918288401
sg10
F0.021854260520593465
sg11
F3.6892533144721393
sg12
F0.23146364374925485
sssg49
(dp95
g5
(dp96
g7
F0.005014172020843257
sg8
F0.05847941995541481
sg9
F0.01057984468784559
sg10
F0.0054138359560340615
sg11
F0.8066604684560555
sg12
F0.054598373556300546
ssg13
(dp97
g7
F0.005328715350965398
sg8
F0.0
sg9
F0.012342670683560302
sg10
F0.006748794540238879
sg11
F0.9011478075420873
sg12
F0.07266550091406263
ssg15
(dp98
g7
F0.005329254866156034
sg8
F0.10392529169722489
sg9
F0.021059797697009802
sg10
F0.007615911221435861
sg11
F1.064542130299178
sg12
F0.09006246947432515
ssg17
(dp99
g7
F0.005077039559636623
sg8
F0.05668067498518981
sg9
F0.014612106625752207
sg10
F0.005885694015805156
sg11
F0.9238407435100057
sg12
F0.06863361208231854
ssg19
(dp100
g7
F0.010378555605901268
sg8
F0.13203411577865687
sg9
F0.030352979628087327
sg10
F0.012942153811699296
sg11
F1.8572830018493913
sg12
F0.14520013269058987
sssg56
(dp101
g5
(dp102
g7
F3.173475208094461e-08
sg8
F0.0008719497887647281
sg9
F7.612784039322662e-05
sg10
F2.1834865520916312e-05
sg11
F0.008582423849358443
sg12
F0.00029785969856016597
ssg13
(dp103
g7
F9.553396935841028e-05
sg8
F2.4869834589765824e-06
sg9
F0.0
sg10
F0.00028150725474449895
sg11
F0.0
sg12
F0.0012149217066299016
ssg15
(dp104
g7
F0.0
sg8
F0.0
sg9
F0.0
sg10
F0.0011160905716869247
sg11
F0.0
sg12
F0.0038561047783948984
ssg17
(dp105
g7
F0.0
sg8
F0.005777388408446179
sg9
F0.0002179166751070827
sg10
F8.53114862324473e-05
sg11
F0.0
sg12
F0.0006970537496328088
ssg19
(dp106
g7
F9.553397462928131e-05
sg8
F0.005842817765535894
sg9
F0.0002308313786569374
sg10
F0.0011544086406977973
sg11
F0.008582423849358443
sg12
F0.004113415022229582
ssssS'controlYields'
p107
(dp108
g3
(dp109
g5
(dp110
S'datadriven'
p111
F0.0
sg7
F0.012206173472804949
sg8
F0.26354193687438965
sg9
F0.00619661679957062
sg10
F0.09984706761315465
sg11
F11.0
sg12
F0.8434334397315979
ssg13
(dp112
g111
F0.0
sg7
F0.005440734821604565
sg8
F0.2199256420135498
sg9
F0.005918486567679793
sg10
F0.02638446050696075
sg11
F2.0
sg12
F0.18451614677906036
ssg15
(dp113
g111
F0.0
sg7
F0.0043526453628146555
sg8
F0.35230520367622375
sg9
F0.016182491555809975
sg10
F0.013302032835781574
sg11
F1.0
sg12
F0.16628354787826538
ssg17
(dp114
g111
F0.0
sg7
F0.0033797055075410753
sg8
F0.2440873235464096
sg9
F0.05442368984222412
sg10
F0.04282336821779609
sg11
F4.0
sg12
F0.3666934370994568
ssg19
(dp115
g111
F0.0
sg7
F0.025379259164765244
sg8
F1.0798601061105728
sg9
F0.08272128476528451
sg10
F0.18235692917369306
sg11
F18.0
sg12
F1.5609265714883804
sssg21
(dp116
g5
(dp117
g111
F0.0
sg7
F0.1514293383806944
sg8
F1.1243345737457275
sg9
F0.26786861941218376
sg10
F1.120311138205352
sg11
F96.0
sg12
F10.35563850402832
ssg13
(dp118
g111
F0.0
sg7
F0.04202230996452272
sg8
F0.010892979800701141
sg9
F0.13030901923775673
sg10
F0.29842416881773914
sg11
F23.0
sg12
F2.6387786865234375
ssg15
(dp119
g111
F0.0
sg7
F0.0759672955609858
sg8
F-0.014424911700189114
sg9
F0.18989913538098335
sg10
F0.44317578304335026
sg11
F33.0
sg12
F4.305939674377441
ssg17
(dp120
g111
F0.0
sg7
F0.24305896647274494
sg8
F2.939242362976074
sg9
F0.2765858434140682
sg10
F1.7023207056954561
sg11
F174.0
sg12
F17.727418899536133
ssg19
(dp121
g111
F0.0
sg7
F0.5124779103789479
sg8
F4.060045004822314
sg9
F0.8646626174449921
sg10
F3.5642317957618976
sg11
F326.0
sg12
F35.02777576446533
sssg28
(dp122
g5
(dp123
g111
F0.0
sg7
F0.03794377273879945
sg8
F0.15354354679584503
sg9
F0.03164783492684364
sg10
F0.23773517688096035
sg11
F39.0
sg12
F1.8751779794692993
ssg13
(dp124
g111
F0.0
sg7
F0.011569612775929272
sg8
F0.0
sg9
F0.007770490366965532
sg10
F0.05331128602847457
sg11
F4.0
sg12
F0.5096712708473206
ssg15
(dp125
g111
F0.0
sg7
F0.002396655182117513
sg8
F0.11532837152481079
sg9
F0.03552368236705661
sg10
F0.052228069595003035
sg11
F4.0
sg12
F0.5070356726646423
ssg17
(dp126
g111
F0.0
sg7
F0.016446936642751098
sg8
F-0.10960853099822998
sg9
F0.0646307528950274
sg10
F0.16010562091654523
sg11
F25.0
sg12
F1.808638572692871
ssg19
(dp127
g111
F0.0
sg7
F0.06835697733959734
sg8
F0.15926338732242584
sg9
F0.13957276055589318
sg10
F0.5033801534209832
sg11
F72.0
sg12
F4.700523495674133
sssg35
(dp128
g5
(dp129
g111
F0.0
sg7
F0.005044275293585088
sg8
F0.0
sg9
F-0.019254570826888084
sg10
F0.07152210595086217
sg11
F7.0
sg12
F0.6477956175804138
ssg13
(dp130
g111
F0.0
sg7
F0.010210582535364665
sg8
F0.0
sg9
F0.05277879163622856
sg10
F0.0866036859806627
sg11
F8.0
sg12
F0.8422747850418091
ssg15
(dp131
g111
F0.0
sg7
F0.0012917239655507728
sg8
F0.11965041607618332
sg9
F0.02330871461890638
sg10
F0.01815148233436048
sg11
F4.0
sg12
F0.14216101169586182
ssg17
(dp132
g111
F0.0
sg7
F-0.00021223805379122496
sg8
F0.0
sg9
F0.008538332767784595
sg10
F0.013554897217545658
sg11
F1.0
sg12
F0.0761733204126358
ssg19
(dp133
g111
F0.0
sg7
F0.0163343437407093
sg8
F0.11965041607618332
sg9
F0.06537126819603145
sg10
F0.189832171483431
sg11
F20.0
sg12
F1.7084047347307205
sssg42
(dp134
g5
(dp135
g111
F0.0
sg7
F0.09189885039813817
sg8
F0.864858090877533
sg9
F0.0928136296570301
sg10
F0.6590174102166202
sg11
F16.0
sg12
F6.860062599182129
ssg13
(dp136
g111
F0.0
sg7
F0.11765263159759343
sg8
F0.05217995494604111
sg9
F0.185474943369627
sg10
F0.9082318882246909
sg11
F24.0
sg12
F9.786717414855957
ssg15
(dp137
g111
F0.0
sg7
F0.14492967654950917
sg8
F0.4634597897529602
sg9
F0.15678808838129044
sg10
F0.7002657202247065
sg11
F15.0
sg12
F6.742366313934326
ssg17
(dp138
g111
F0.0
sg7
F0.07972111040726304
sg8
F0.40329062938690186
sg9
F0.13989996444433928
sg10
F0.4634600619986742
sg11
F15.0
sg12
F4.220742225646973
ssg19
(dp139
g111
F0.0
sg7
F0.4342022689525038
sg8
F1.7837884649634361
sg9
F0.5749766258522868
sg10
F2.7309750806646917
sg11
F70.0
sg12
F27.609888553619385
sssS'PPP'
p140
(dp141
g5
(dp142
g111
F0.0
sg7
F0.6342090349644423
sg8
F1.2374581098556519
sg9
F0.5715951658785343
sg10
F3.633899334061425
sg11
F49.0
sg12
F35.4648551940918
ssg13
(dp143
g111
F0.0
sg7
F0.6540676392614841
sg8
F0.8938038349151611
sg9
F0.8753266707062721
sg10
F4.93834532112669
sg11
F78.0
sg12
F50.165531158447266
ssg15
(dp144
g111
F0.0
sg7
F1.098580438643694
sg8
F0.7064563035964966
sg9
F1.4106655716896057
sg10
F7.908344408933772
sg11
F108.0
sg12
F83.9146728515625
ssg17
(dp145
g111
F0.0
sg7
F0.7848889604210854
sg8
F0.8770040273666382
sg9
F0.9792057052254677
sg10
F5.796474520174343
sg11
F83.0
sg12
F55.80852508544922
ssg19
(dp146
g111
F0.0
sg7
F3.1717460732907057
sg8
F3.7147222757339478
sg9
F3.83679311349988
sg10
F22.27706358429623
sg11
F318.0
sg12
F225.35358428955078
sssg49
(dp147
g5
(dp148
g111
F0.0
sg7
F0.04519012477248907
sg8
F-0.09397394210100174
sg9
F0.05900901093991706
sg10
F0.2860200870782137
sg11
F8.0
sg12
F2.441190242767334
ssg13
(dp149
g111
F0.0
sg7
F0.05142935772892088
sg8
F0.0
sg9
F0.07497641816735268
sg10
F0.4254263994007488
sg11
F8.0
sg12
F4.250123977661133
ssg15
(dp150
g111
F0.0
sg7
F0.025772407127078623
sg8
F0.2573954463005066
sg9
F0.032796683721244335
sg10
F0.1766134761273861
sg11
F3.0
sg12
F2.071726083755493
ssg17
(dp151
g111
F0.0
sg7
F0.02648671332281083
sg8
F0.13255108892917633
sg9
F0.0536809703335166
sg10
F0.11560342973098159
sg11
F2.0
sg12
F1.2452099323272705
ssg19
(dp152
g111
F0.0
sg7
F0.1488786029512994
sg8
F0.2959725931286812
sg9
F0.22046308316203067
sg10
F1.0036633923373302
sg11
F21.0
sg12
F10.00825023651123
sssg56
(dp153
g5
(dp154
g111
F0.0
sg7
F1.5264481135091046e-05
sg8
F-0.2443201243877411
sg9
F-0.010011464357376099
sg10
F0.015936126350425184
sg11
F5.0
sg12
F0.18129795789718628
ssg13
(dp155
g111
F0.0
sg7
F0.003918293383321725
sg8
F5.1103561418130994e-05
sg9
F0.002669523935765028
sg10
F0.006789131031837314
sg11
F0.0
sg12
F0.042769040912389755
ssg15
(dp156
g111
F0.0
sg7
F0.0
sg8
F0.0
sg9
F0.0
sg10
F0.005724258400732651
sg11
F0.0
sg12
F0.02075895108282566
ssg17
(dp157
g111
F0.0
sg7
F3.330319304950535e-05
sg8
F0.1306375414133072
sg9
F0.009706055745482445
sg10
F0.005942992109339684
sg11
F0.0
sg12
F0.04575705528259277
ssg19
(dp158
g111
F0.0
sg7
F0.003966861057506321
sg8
F-0.11363147941301577
sg9
F0.002364115323871374
sg10
F0.034392507892334834
sg11
F5.0
sg12
F0.29058300517499447
ssssS'systs'
p159
(dp160
g5
(dp161
g111
F3.192914668792845
sg7
F0.04800338198580285
sg8
F0.09366339970568363
sg9
F0.09822293725408254
sg10
F0.6051178947595939
sg11
F0.0
sg12
F2.318544575187327
ssg13
(dp162
g111
F4.460099921866776
sg7
F0.0495064828803356
sg8
F0.06765215337907242
sg9
F0.15041617176985983
sg10
F0.8223345914693302
sg11
F0.0
sg12
F3.2796135636889714
ssg15
(dp163
g111
F6.049367407897443
sg7
F0.08315172684555144
sg8
F0.05347178915500986
sg9
F0.24240883094523402
sg10
F1.316899638609229
sg11
F0.0
sg12
F5.485991933530349
ssg17
(dp164
g111
F6.485177566565289
sg7
F0.059408369333063
sg8
F0.06638057329335992
sg9
F0.16826674941411138
sg10
F0.9652304965628516
sg11
F0.0
sg12
F3.648529012114235
ssg19
(dp165
g111
F10.427826691158712
sg7
F0.12328333445144435
sg8
F0.1435801485144975
sg9
F0.3454685375129634
sg10
F1.9256937494184792
sg11
F0.0
sg12
F7.716176872082611
sssS'yields'
p166
(dp167
g5
(dp168
g111
F10.64304889597615
sg7
F0.6342090349644423
sg8
F1.2374581098556519
sg9
F0.5715951658785343
sg10
F3.633899334061425
sg11
F49.0
sg12
F35.4648551940918
ssg13
(dp169
g111
F14.866999739555922
sg7
F0.6540676392614841
sg8
F0.8938038349151611
sg9
F0.8753266707062721
sg10
F4.93834532112669
sg11
F78.0
sg12
F50.165531158447266
ssg15
(dp170
g111
F20.164558026324812
sg7
F1.098580438643694
sg8
F0.7064563035964966
sg9
F1.4106655716896057
sg10
F7.908344408933772
sg11
F108.0
sg12
F83.9146728515625
ssg17
(dp171
g111
F21.61725855521763
sg7
F0.7848889604210854
sg8
F0.8770040273666382
sg9
F0.9792057052254677
sg10
F5.796474520174343
sg11
F83.0
sg12
F55.80852508544922
ssg19
(dp172
g111
F67.29186521707452
sg7
F3.1717460732907057
sg8
F3.7147222757339478
sg9
F3.83679311349988
sg10
F22.27706358429623
sg11
F318.0
sg12
F225.35358428955078
sssS'errs'
p173
(dp174
g5
(dp175
g111
F1.7322233247748882
sg7
F0.04573667458698833
sg8
F0.5738137410465803
sg9
F0.09729993955920008
sg10
F0.05528695626461168
sg11
F6.999999999999999
sg12
F0.6230981124053308
ssg13
(dp176
g111
F3.563021644196104
sg7
F0.04511157046661844
sg8
F0.40290445308480416
sg9
F0.12127701971604818
sg10
F0.0696152657155369
sg11
F8.831760866327848
sg12
F0.7669224409680521
ssg15
(dp177
g111
F4.910611057920832
sg7
F0.06129469849921315
sg8
F0.45492448538463
sg9
F0.14077561029434257
sg10
F0.08712468330314634
sg11
F10.392304845413264
sg12
F0.9921326060322679
ssg17
(dp178
g111
F3.205776267288323
sg7
F0.052264039565886516
sg8
F0.527260159184687
sg9
F0.11843889505696403
sg10
F0.07060967137423882
sg11
F9.1104335791443
sg12
F0.7979198039907437
ssg19
(dp179
g111
F7.0772044849635005
sg7
F0.10303138884871318
sg8
F0.9882073520245481
sg9
F0.24087535794574313
sg10
F0.1431061455210832
sg11
F17.832554500127006
sg12
F1.6116526951227699
sssS'controlErrs'
p180
(dp181
g3
(dp182
g5
(dp183
g111
F0.0
sg7
F0.00484330556557969
sg8
F0.25354209255578264
sg9
F0.020954656302267803
sg10
F0.009436896052629203
sg11
F3.3166247903554
sg12
F0.0966642328937108
ssg13
(dp184
g111
F0.0
sg7
F0.004871006467594864
sg8
F0.21992564831405242
sg9
F0.014436972327757182
sg10
F0.004730079024921309
sg11
F1.4142135623730951
sg12
F0.04395571241027989
ssg15
(dp185
g111
F0.0
sg7
F0.0037920385810994773
sg8
F0.27519464951078576
sg9
F0.01381722815090193
sg10
F0.0034248268903841745
sg11
F1.0
sg12
F0.04503350930071758
ssg17
(dp186
g111
F0.0
sg7
F0.0019332056310759518
sg8
F0.18037830034019844
sg9
F0.020925555586826503
sg10
F0.005941746890309667
sg11
F2.0
sg12
F0.06358391345968402
ssg19
(dp187
g111
F0.0
sg7
F0.008080912907679236
sg8
F0.47002054193078024
sg9
F0.03572559952093234
sg10
F0.012588186923768343
sg11
F4.242640687119285
sg12
F0.1317080467747176
sssg21
(dp188
g5
(dp189
g111
F0.0
sg7
F0.022434914850119256
sg8
F0.5694766563096801
sg9
F0.06392518712612547
sg10
F0.03104409746037914
sg11
F9.797958971132712
sg12
F0.3382298131809278
ssg13
(dp190
g111
F0.0
sg7
F0.010194629313523195
sg8
F0.10140713239943382
sg9
F0.03757090980666966
sg10
F0.016771207771428386
sg11
F4.795831523312719
sg12
F0.16924709539650293
ssg15
(dp191
g111
F0.0
sg7
F0.016532232498104163
sg8
F0.009807947238883268
sg9
F0.049894407863087666
sg10
F0.020257893642375333
sg11
F5.7445626465380295
sg12
F0.22095151979876512
ssg17
(dp192
g111
F0.0
sg7
F0.030032823037606394
sg8
F1.0081246898730187
sg9
F0.07904024023437914
sg10
F0.03855084678322733
sg11
F13.19090595827292
sg12
F0.4613575115953154
ssg19
(dp193
g111
F0.0
sg7
F0.04222014971730679
sg8
F1.1623246769916489
sg9
F0.11930974111583502
sg10
F0.05604961587532602
sg11
F18.05547008526779
sg12
F0.6361716069044295
sssg28
(dp194
g5
(dp195
g111
F0.0
sg7
F0.010732629495861427
sg8
F0.13694445130214705
sg9
F0.026243855017277846
sg10
F0.014392723414869923
sg11
F6.244997998398398
sg12
F0.14066680649194532
ssg13
(dp196
g111
F0.0
sg7
F0.006338416070245961
sg8
F0.0
sg9
F0.020673233928683594
sg10
F0.006825200224810001
sg11
F2.0
sg12
F0.07146035922609395
ssg15
(dp197
g111
F0.0
sg7
F0.001591739070063767
sg8
F0.11344225403643761
sg9
F0.019872264559187662
sg10
F0.006816398287344745
sg11
F2.0
sg12
F0.07660621832000135
ssg17
(dp198
g111
F0.0
sg7
F0.006790125311413378
sg8
F0.1161886761313969
sg9
F0.02647062499465139
sg10
F0.011501188597085751
sg11
F5.0
sg12
F0.14309895337567274
ssg19
(dp199
g111
F0.0
sg7
F0.014283007007869563
sg8
F0.2124211293738935
sg9
F0.047028963560297427
sg10
F0.020796020536707094
sg11
F8.48528137423857
sg12
F0.2263615615157959
sssg35
(dp200
g5
(dp201
g111
F0.0
sg7
F0.005192093333987712
sg8
F0.0
sg9
F0.01843639287938311
sg10
F0.007983080763183423
sg11
F2.6457513110645907
sg12
F0.08727990214767042
ssg13
(dp202
g111
F0.0
sg7
F0.007778279177596836
sg8
F0.0
sg9
F0.026036950307630074
sg10
F0.009264361038826184
sg11
F2.8284271247461903
sg12
F0.10090065346922358
ssg15
(dp203
g111
F0.0
sg7
F0.0008961825157948336
sg8
F0.11950580713485597
sg9
F0.013590892694499462
sg10
F0.004078146343939439
sg11
F2.0
sg12
F0.04007148443685172
ssg17
(dp204
g111
F0.0
sg7
F0.007138244416186227
sg8
F0.0
sg9
F0.017346531576582763
sg10
F0.0032836991699661503
sg11
F1.0
sg12
F0.029636156121215566
ssg19
(dp205
g111
F0.0
sg7
F0.011799031172105037
sg8
F0.11950580713485597
sg9
F0.03877419097409703
sg10
F0.013303079409319211
sg11
F4.47213595499958
sg12
F0.1424175157908506
sssg42
(dp206
g5
(dp207
g111
F0.0
sg7
F0.017144079659446733
sg8
F0.4309007175580151
sg9
F0.04694807212055613
sg10
F0.02385589333300584
sg11
F4.0
sg12
F0.27187841624976367
ssg13
(dp208
g111
F0.0
sg7
F0.020414066782850158
sg8
F0.14433729025357248
sg9
F0.05597986041799929
sg10
F0.02924473753255173
sg11
F4.898979485566356
sg12
F0.33318065024319815
ssg15
(dp209
g111
F0.0
sg7
F0.023242024367119113
sg8
F0.32540097036017895
sg9
F0.06005715710379436
sg10
F0.025742323504914465
sg11
F3.872983346207417
sg12
F0.27655150081175855
ssg17
(dp210
g111
F0.0
sg7
F0.017431651329642275
sg8
F0.27162879252421257
sg9
F0.035292369069871536
sg10
F0.019823972195411835
sg11
F3.872983346207417
sg12
F0.21443448901062365
ssg19
(dp211
g111
F0.0
sg7
F0.039429782585554525
sg8
F0.6214311499991485
sg9
F0.10094691516935762
sg10
F0.049799753142959716
sg11
F8.366600265340756
sg12
F0.5544277244126987
sssg140
(dp212
g5
(dp213
g111
F0.0
sg7
F0.04573667458698833
sg8
F0.5738137410465803
sg9
F0.09729993955920008
sg10
F0.05528695626461168
sg11
F6.999999999999999
sg12
F0.6230981124053308
ssg13
(dp214
g111
F0.0
sg7
F0.04511157046661844
sg8
F0.40290445308480416
sg9
F0.12127701971604818
sg10
F0.0696152657155369
sg11
F8.831760866327848
sg12
F0.7669224409680521
ssg15
(dp215
g111
F0.0
sg7
F0.06129469849921315
sg8
F0.45492448538463
sg9
F0.14077561029434257
sg10
F0.08712468330314634
sg11
F10.392304845413264
sg12
F0.9921326060322679
ssg17
(dp216
g111
F0.0
sg7
F0.052264039565886516
sg8
F0.527260159184687
sg9
F0.11843889505696403
sg10
F0.07060967137423882
sg11
F9.1104335791443
sg12
F0.7979198039907437
ssg19
(dp217
g111
F0.0
sg7
F0.10303138884871318
sg8
F0.9882073520245481
sg9
F0.24087535794574313
sg10
F0.1431061455210832
sg11
F17.832554500127006
sg12
F1.6116526951227699
sssg49
(dp218
g5
(dp219
g111
F0.0
sg7
F0.012892268059293555
sg8
F0.24408674877418626
sg9
F0.034172402810804574
sg10
F0.01541936809843478
sg11
F2.8284271247461903
sg12
F0.1629679353830493
ssg13
(dp220
g111
F0.0
sg7
F0.01661096216844571
sg8
F0.0
sg9
F0.03842858590709842
sg10
F0.019891046229201344
sg11
F2.8284271247461903
sg12
F0.2181909095344036
ssg15
(dp221
g111
F0.0
sg7
F0.010106243597434809
sg8
F0.24300232845686717
sg9
F0.038574197007830754
sg10
F0.012824762092647879
sg11
F1.7320508075688772
sg12
F0.15333564207325479
ssg17
(dp222
g111
F0.0
sg7
F0.009783681069295428
sg8
F0.13253359710730797
sg9
F0.02870186802047746
sg10
F0.009723970949310547
sg11
F1.4142135623730951
sg12
F0.11638655289830835
ssg19
(dp223
g111
F0.0
sg7
F0.025298047647804703
sg8
F0.36904420727714193
sg9
F0.07040081839969599
sg10
F0.029873747110185336
sg11
F4.582575694955841
sg12
F0.33350182876864715
sssg56
(dp224
g5
(dp225
g111
F0.0
sg7
F1.0813670380213762e-05
sg8
F0.24432012588264823
sg9
F0.009549641231247595
sg10
F0.0034017786753451685
sg11
F2.23606797749979
sg12
F0.04324067898844067
ssg13
(dp226
g111
F0.0
sg7
F0.003543451751974473
sg8
F5.1103562030736724e-05
sg9
F0.0026695238256363844
sg10
F0.002641664047476612
sg11
F0.0
sg12
F0.022025201870231128
ssg15
(dp227
g111
F0.0
sg7
F0.0
sg8
F0.0
sg9
F0.0
sg10
F0.0022929210599490026
sg11
F0.0
sg12
F0.01362513649425781
ssg17
(dp228
g111
F0.0
sg7
F3.330319251435178e-05
sg8
F0.13063753729419006
sg9
F0.009427101593780912
sg10
F0.0023714232207289556
sg11
F0.0
sg12
F0.021289410332783466
ssg19
(dp229
g111
F0.0
sg7
F0.0035436247482866614
sg8
F0.2770532307575171
sg9
F0.013681821865550326
sg10
F0.005425091904726942
sg11
F2.23606797749979
sg12
F0.05471516401885852
ssss.