(dp0
S'controlComponentYields'
p1
(dp2
S'FPF'
p3
(dp4
S'eee'
p5
(dp6
S'VVV'
p7
F0.00032761166539785336
sS'ZG'
p8
F0.01531671267002821
sS'TTV'
p9
F0.00045666794540011324
sS'ZZ'
p10
F0.0031133999436860904
sS'data'
p11
F-0.38949474692344666
sS'WZ'
p12
F0.02787194587290287
ssS'eem'
p13
(dp14
g7
F0.0005716531331927399
sg8
F0.045155592262744904
sg9
F0.0032059971417766064
sg10
F0.0059645145665854216
sg11
F-0.5033571720123291
sg12
F0.029077820479869843
ssS'mmm'
p15
(dp16
g7
F0.0009829052251006942
sg8
F0.09812634438276291
sg9
F0.0008355246391147375
sg10
F0.005294023503665812
sg11
F-0.7265756130218506
sg12
F0.06961330771446228
ssS'mme'
p17
(dp18
g7
F0.00017293878227064852
sg8
F0.03269908204674721
sg9
F0.0035579230170696974
sg10
F0.0022845553612569347
sg11
F-0.22242778539657593
sg12
F0.02211480773985386
ssS'wz'
p19
(dp20
g7
F0.002055108805961936
sg8
F0.19129773136228323
sg9
F0.008056112743361155
sg10
F0.01665649337519426
sg11
F-1.8418553173542023
sg12
F0.14867788180708885
sssS'PPF'
p21
(dp22
g5
(dp23
g7
F-0.013822945766150951
sg8
F-0.09451673179864883
sg9
F-0.02500675222836435
sg10
F-0.11154305777354523
sg11
F11.013927459716797
sg12
F-1.0091933012008667
ssg13
(dp24
g7
F-0.023677570279687643
sg8
F-0.12627361714839935
sg9
F-0.09371792385354638
sg10
F-0.19405968856281675
sg11
F15.224560737609863
sg12
F-1.6720446348190308
ssg15
(dp25
g7
F-0.04505454679019749
sg8
F0.007956641726195812
sg9
F-0.1152220806106925
sg10
F-0.2866859828353956
sg11
F22.12915462255478
sg12
F-2.6811113357543945
ssg17
(dp26
g7
F-0.02519289869815111
sg8
F-0.24583879113197327
sg9
F-0.02894470584578812
sg10
F-0.16880695607119378
sg11
F18.562074452638626
sg12
F-1.7373621463775635
ssg19
(dp27
g7
F-0.1077479615341872
sg8
F-0.45867249835282564
sg9
F-0.26289146253839135
sg10
F-0.7610956852429513
sg11
F66.92971727252007
sg12
F-7.0997114181518555
sssS'PFF'
p28
(dp29
g5
(dp30
g7
F0.0006459780233853962
sg8
F0.006713290698826313
sg9
F0.0013620449826703407
sg10
F0.004736558523006806
sg11
F-0.8696860074996948
sg12
F0.04021608084440231
ssg13
(dp31
g7
F0.00215956262400141
sg8
F0.0
sg9
F0.0024070118088275194
sg10
F0.006070823408663273
sg11
F-0.6543291807174683
sg12
F0.05908360332250595
ssg15
(dp32
g7
F0.0008780603515186058
sg8
F0.029033711180090904
sg9
F0.012994934106245637
sg10
F0.018135065402930195
sg11
F-1.47024405002594
sg12
F0.21207976341247559
ssg17
(dp33
g7
F0.0008696517179487273
sg8
F-0.003728248178958893
sg9
F0.0024205929366871715
sg10
F0.0097702582798414
sg11
F-1.4375789985060692
sg12
F0.09647960960865021
ssg19
(dp34
g7
F0.004553252716854139
sg8
F0.032018753699958324
sg9
F0.01918458383443067
sg10
F0.03871270561444168
sg11
F-4.431838236749172
sg12
F0.40785905718803406
sssS'FFP'
p35
(dp36
g5
(dp37
g7
F7.282883907944182e-05
sg8
F0.0
sg9
F-0.0014783261576667428
sg10
F0.004497442219872028
sg11
F-0.44380271434783936
sg12
F0.04013963043689728
ssg13
(dp38
g7
F4.871705141340499e-05
sg8
F0.0
sg9
F0.0031529536936432123
sg10
F0.004698499877122231
sg11
F-0.5483260154724121
sg12
F0.04909268021583557
ssg15
(dp39
g7
F0.00033091862133005634
sg8
F0.03465772792696953
sg9
F0.0060252080438658595
sg10
F0.0070389287429861724
sg11
F-1.5993937253952026
sg12
F0.04696906358003616
ssg17
(dp40
g7
F-8.993977098725736e-05
sg8
F0.0
sg9
F0.0006826276076026261
sg10
F0.004216596673359163
sg11
F-0.3369804918766022
sg12
F0.02605871856212616
ssg19
(dp41
g7
F0.0003625247408356458
sg8
F0.03465772792696953
sg9
F0.008382463187444955
sg10
F0.020451467513339594
sg11
F-2.9285029470920563
sg12
F0.16226009279489517
sssS'PFP'
p42
(dp43
g5
(dp44
g7
F-0.018301671836525202
sg8
F-0.3241950571537018
sg9
F-0.02154929007519968
sg10
F-0.13653776521096006
sg11
F3.028542995452881
sg12
F-1.4450666904449463
ssg13
(dp45
g7
F-0.027018218068405986
sg8
F-0.02779843471944332
sg9
F-0.04131535068154335
sg10
F-0.18803319979861044
sg11
F4.423095166683197
sg12
F-1.9973300695419312
ssg15
(dp46
g7
F-0.08286919817328453
sg8
F-0.21942153573036194
sg9
F-0.07821189984679222
sg10
F-0.41899714832834434
sg11
F8.76783275604248
sg12
F-3.917613983154297
ssg17
(dp47
g7
F-0.043759402236901224
sg8
F-0.1856209933757782
sg9
F-0.0770006631501019
sg10
F-0.275124018951864
sg11
F9.696595191955566
sg12
F-2.487318992614746
ssg19
(dp48
g7
F-0.17194849031511694
sg8
F-0.7570360209792852
sg9
F-0.21807720375363715
sg10
F-1.0186921322897788
sg11
F25.916066110134125
sg12
F-9.84732973575592
sssS'FPP'
p49
(dp50
g5
(dp51
g7
F-0.017854150559287518
sg8
F-0.02860936149954796
sg9
F-0.01727436875444255
sg10
F-0.09242490236647427
sg11
F2.064612627029419
sg12
F-0.700732409954071
ssg13
(dp52
g7
F-0.016075460458523594
sg8
F0.0
sg9
F-0.018888839287683368
sg10
F-0.13212209610901482
sg11
F2.3176093101501465
sg12
F-1.209337592124939
ssg15
(dp53
g7
F-0.015322579740313813
sg8
F-0.11017565429210663
sg9
F-0.024129365338012576
sg10
F-0.10157475899904966
sg11
F1.7754907608032227
sg12
F-1.1589430570602417
ssg17
(dp54
g7
F-0.01288372470298782
sg8
F-0.05669499188661575
sg9
F-0.027505391975864768
sg10
F-0.0682146439794451
sg11
F1.2465596199035645
sg12
F-0.7220407128334045
ssg19
(dp55
g7
F-0.062135915461112745
sg8
F-0.19548000767827034
sg9
F-0.08779796535600326
sg10
F-0.39433640145398385
sg11
F7.4042723178863525
sg12
F-3.7910537719726562
sssS'FFF'
p56
(dp57
g5
(dp58
g7
F-4.460511604520434e-08
sg8
F0.0008719497709535062
sg9
F7.754226680845022e-05
sg10
F-8.724432336748578e-05
sg11
F0.01606842689216137
sg12
F-0.0010341439628973603
ssg13
(dp59
g7
F-0.0001042943340507918
sg8
F-0.00019811010861303657
sg9
F0.0
sg10
F-0.00048203224105236586
sg11
F0.0
sg12
F-0.0018651311984285712
ssg15
(dp60
g7
F0.0
sg8
F0.0
sg9
F0.0
sg10
F-0.0022757181104680058
sg11
F0.0
sg12
F-0.004907903727144003
ssg17
(dp61
g7
F0.0
sg8
F-0.005777426064014435
sg9
F-0.0002014139899984002
sg10
F-0.0001756130914145615
sg11
F0.0
sg12
F-0.0014120468404144049
ssg19
(dp62
g7
F-0.00010433893916683701
sg8
F-0.005103586401673965
sg9
F-0.00012387172318995
sg10
F-0.003020607766302419
sg11
F0.01606842689216137
sg12
F-0.00921922572888434
ssssS'controlComponentErrs'
p63
(dp64
g3
(dp65
g5
(dp66
g7
F0.00013796959453978402
sg8
F0.015049895418255486
sg9
F0.00043975024741568693
sg10
F0.0003646941986011629
sg11
F0.1304678170125551
sg12
F0.004295560409362426
ssg13
(dp67
g7
F0.0005006251163147003
sg8
F0.04515559268055823
sg9
F0.004916850172980481
sg10
F0.0013932033101904425
sg11
F0.3619144680812027
sg12
F0.008365787370288976
ssg15
(dp68
g7
F0.0008616679510659264
sg8
F0.07445981205029877
sg9
F0.002065552403020107
sg10
F0.0013974732626641608
sg11
F0.7265756336670115
sg12
F0.020216620963001534
ssg17
(dp69
g7
F9.24781728995963e-05
sg8
F0.02925280374229186
sg9
F0.001504510688545475
sg10
F0.0003337910709845735
sg11
F0.12232366870367428
sg12
F0.004617693377876958
ssg19
(dp70
g7
F0.0010102895557510129
sg8
F0.09308875893352417
sg9
F0.005558673856704498
sg10
F0.0020342972548153316
sg11
F0.831191412880491
sg12
F0.022770004234719195
sssg21
(dp71
g5
(dp72
g7
F0.002320830767383445
sg8
F0.0651656301721622
sg9
F0.00689865027016109
sg10
F0.0034637328560169008
sg11
F1.2669899463293763
sg12
F0.03553627445368738
ssg13
(dp73
g7
F0.005881063343869618
sg8
F0.16636623381099824
sg9
F0.02724466581608113
sg10
F0.011389753379478099
sg11
F3.259659409551387
sg12
F0.11035272208167038
ssg15
(dp74
g7
F0.01014115686589605
sg8
F0.0053605063372715285
sg9
F0.029403411901893682
sg10
F0.013600063513703192
sg11
F3.9675087340240163
sg12
F0.14116221682221722
ssg17
(dp75
g7
F0.0033671720721715655
sg8
F0.0896283046632526
sg9
F0.008430317681188033
sg10
F0.004230608855087962
sg11
F1.5648925473554705
sg12
F0.04943847273161518
ssg19
(dp76
g7
F0.012415879825761977
sg8
F0.19996562487885639
sg9
F0.041539066896815434
sg10
F0.018562965986196635
sg11
F5.515492473904951
sg12
F0.1892392245732356
sssg28
(dp77
g5
(dp78
g7
F0.0001766493269587212
sg8
F0.0070360299249495484
sg9
F0.0010467757233669993
sg10
F0.0003600968617812146
sg11
F0.16540103178933688
sg12
F0.0036846797929342033
ssg13
(dp79
g7
F0.0014935172912374606
sg8
F0.0
sg9
F0.003632973992073069
sg10
F0.0008602270646170109
sg11
F0.3865153702033505
sg12
F0.008585009870242051
ssg15
(dp80
g7
F0.0006573817420643041
sg8
F0.028252310397413428
sg9
F0.008693811376878404
sg10
F0.002562181703095759
sg11
F0.7432752526489895
sg12
F0.03497611896790424
ssg17
(dp81
g7
F0.0003759021225406309
sg8
F0.0040088670323287145
sg9
F0.0010776159455433186
sg10
F0.0008251324126525476
sg11
F0.32772455986647153
sg12
F0.008435638219928241
ssg19
(dp82
g7
F0.0016838206687383016
sg8
F0.029389960441951475
sg9
F0.009541375782608053
sg10
F0.0028487328640384615
sg11
F0.914665578810366
sg12
F0.03717214212125952
sssg35
(dp83
g5
(dp84
g7
F0.00027797781764100205
sg8
F0.0
sg9
F0.0011787333185374303
sg10
F0.0006861568098208029
sg11
F0.1981128858346052
sg12
F0.006670633696261
ssg13
(dp85
g7
F0.0006833505300396248
sg8
F0.0
sg9
F0.0016259088468106135
sg10
F0.0006334432394373226
sg11
F0.22291103410028426
sg12
F0.006842644989960575
ssg15
(dp86
g7
F0.0002007065124156459
sg8
F0.03461715730655113
sg9
F0.003513562296404844
sg10
F0.0016733188401923027
sg11
F0.8047155853674717
sg12
F0.013852859383563666
ssg17
(dp87
g7
F0.0015968496524898109
sg8
F0.0
sg9
F0.005280178204986914
sg10
F0.0010058268047117122
sg11
F0.33698048519963963
sg12
F0.010307473734787683
ssg19
(dp88
g7
F0.0017704382312830832
sg8
F0.03461715730655113
sg9
F0.0066526982271484245
sg10
F0.002164196157299841
sg11
F0.9219875624953249
sg12
F0.01973486438419203
sssg42
(dp89
g5
(dp90
g7
F0.0034353099681355753
sg8
F0.16279219488111335
sg9
F0.009892507843107861
sg10
F0.005410184581002364
sg11
F0.7880760350237993
sg12
F0.06365131501851536
ssg13
(dp91
g7
F0.005410770433223994
sg8
F0.044937160671667226
sg9
F0.012809986822226522
sg10
F0.006814596602073507
sg11
F0.9454629480505223
sg12
F0.07623614256785975
ssg15
(dp92
g7
F0.014059635915324897
sg8
F0.15514441231385123
sg9
F0.033985349077446936
sg10
F0.01597940615726266
sg11
F2.325621920355318
sg12
F0.16600403631570082
ssg17
(dp93
g7
F0.009930677305935639
sg8
F0.12070391194280292
sg9
F0.021318602625073943
sg10
F0.01214495290160545
sg11
F2.585944446192008
sg12
F0.12921130134364972
ssg19
(dp94
g7
F0.0183676211057486
sg8
F0.25915221425630885
sg9
F0.04326019236680878
sg10
F0.021875788583968485
sg11
F3.6892533144721393
sg12
F0.23262918949529374
sssg49
(dp95
g5
(dp96
g7
F0.005035580449554658
sg8
F0.028393172207497153
sg9
F0.010532039965026514
sg10
F0.005701534459183921
sg11
F0.8066604684560555
sg12
F0.05274891751380138
ssg13
(dp97
g7
F0.005329693781705186
sg8
F0.0
sg9
F0.012097316269578013
sg10
F0.006854356609749854
sg11
F0.9011478075420873
sg12
F0.07197786307402833
ssg15
(dp98
g7
F0.005329254866156034
sg8
F0.10392529169722489
sg9
F0.021059797697009802
sg10
F0.007638002163979013
sg11
F1.064542130299178
sg12
F0.09006246947432515
ssg17
(dp99
g7
F0.005077039555736854
sg8
F0.05668067498518981
sg9
F0.014612106866719708
sg10
F0.006059045067336371
sg11
F0.9238407435100057
sg12
F0.06944174491605799
ssg19
(dp100
g7
F0.010389417421090003
sg8
F0.121734700883251
sg9
F0.03023735558666679
sg10
F0.013211389174036336
sg11
F1.8572830018493913
sg12
F0.1445567895893583
sssg56
(dp101
g5
(dp102
g7
F3.173475208094461e-08
sg8
F0.0008719497887647281
sg9
F7.757636059653732e-05
sg10
F2.404764676045504e-05
sg11
F0.008582423849358443
sg12
F0.0002978657322568804
ssg13
(dp103
g7
F9.553396935841028e-05
sg8
F0.00019563893853799977
sg9
F0.0
sg10
F0.00028150608033599144
sg11
F0.0
sg12
F0.0012149217194591033
ssg15
(dp104
g7
F0.0
sg8
F0.0
sg9
F0.0
sg10
F0.0011160905716869247
sg11
F0.0
sg12
F0.0038561047783948984
ssg17
(dp105
g7
F0.0
sg8
F0.0057774262885524645
sg9
F0.00021791667596993827
sg10
F8.52787346984787e-05
sg11
F0.0
sg12
F0.0006970556591139364
ssg19
(dp106
g7
F9.553397462928131e-05
sg8
F0.005846129108055709
sg9
F0.00023131314141049372
sg10
F0.001154449907696765
sg11
F0.008582423849358443
sg12
F0.0041134157865123635
ssssS'controlYields'
p107
(dp108
g3
(dp109
g5
(dp110
S'datadriven'
p111
F0.0
sg7
F0.01220617350190878
sg8
F0.26354193687438965
sg9
F0.006745425518602133
sg10
F0.10634872550144792
sg11
F11.0
sg12
F0.9004879593849182
ssg13
(dp112
g111
F0.0
sg7
F0.005440734821604565
sg8
F0.2199256420135498
sg9
F0.005918487382587045
sg10
F0.02636089763836935
sg11
F2.0
sg12
F0.17731313407421112
ssg15
(dp113
g111
F0.0
sg7
F0.0043526453628146555
sg8
F0.35230520367622375
sg9
F0.016182491555809975
sg10
F0.013302032835781574
sg11
F1.0
sg12
F0.16628354787826538
ssg17
(dp114
g111
F0.0
sg7
F0.0033797055075410753
sg8
F0.2440873235464096
sg9
F0.05442369729280472
sg10
F0.04631800320930779
sg11
F4.0
sg12
F0.38320064544677734
ssg19
(dp115
g111
F0.0
sg7
F0.025379259193869075
sg8
F1.0798601061105728
sg9
F0.08327010174980387
sg10
F0.19232965918490663
sg11
F18.0
sg12
F1.627285286784172
sssg21
(dp116
g5
(dp117
g111
F0.0
sg7
F0.14813534636050463
sg8
F0.9747679233551025
sg9
F0.2784619014710188
sg10
F1.1215386995897916
sg11
F96.0
sg12
F10.541069984436035
ssg13
(dp118
g111
F0.0
sg7
F0.04261080897413194
sg8
F0.1804662048816681
sg9
F0.13886520639061928
sg10
F0.29491431112958466
sg11
F23.0
sg12
F2.6500930786132812
ssg15
(dp119
g111
F0.0
sg7
F0.0759672955609858
sg8
F-0.014424911700189114
sg9
F0.18989913538098335
sg10
F0.4418230947457209
sg11
F33.0
sg12
F4.305939674377441
ssg17
(dp120
g111
F0.0
sg7
F0.24287331849336624
sg8
F2.954294204711914
sg9
F0.27209996804594994
sg10
F1.7307266777897894
sg11
F174.0
sg12
F18.090702056884766
ssg19
(dp121
g111
F0.0
sg7
F0.5095867693889886
sg8
F4.095103421248496
sg9
F0.8793262112885714
sg10
F3.5890027832548865
sg11
F326.0
sg12
F35.58780479431152
sssg28
(dp122
g5
(dp123
g111
F0.0
sg7
F0.03831623657606542
sg8
F0.12003728002309799
sg9
F0.033390745520591736
sg10
F0.23801414816261968
sg11
F39.0
sg12
F1.8951185941696167
ssg13
(dp124
g111
F0.0
sg7
F0.011569612775929272
sg8
F0.0
sg9
F0.00777048384770751
sg10
F0.0536982633639127
sg11
F4.0
sg12
F0.5017761588096619
ssg15
(dp125
g111
F0.0
sg7
F0.002396655182117513
sg8
F0.11532837152481079
sg9
F0.03552368236705661
sg10
F0.05218167226848891
sg11
F4.0
sg12
F0.5070919394493103
ssg17
(dp126
g111
F0.0
sg7
F0.01641052053309977
sg8
F-0.10924354940652847
sg9
F0.06463076081126928
sg10
F0.1663956329557894
sg11
F25.0
sg12
F1.83412766456604
ssg19
(dp127
g111
F0.0
sg7
F0.06869302506721198
sg8
F0.1261221021413803
sg9
F0.14131567254662514
sg10
F0.5102897167508107
sg11
F72.0
sg12
F4.738114356994629
sssg35
(dp128
g5
(dp129
g111
F0.0
sg7
F0.0050365404267722624
sg8
F0.0
sg9
F-0.02373380772769451
sg10
F0.07359910779632628
sg11
F7.0
sg12
F0.7091233730316162
ssg13
(dp130
g111
F0.0
sg7
F0.010210582535364665
sg8
F0.0
sg9
F0.052246224135160446
sg10
F0.0864572748541832
sg11
F8.0
sg12
F0.8795360326766968
ssg15
(dp131
g111
F0.0
sg7
F0.0012917239655507728
sg8
F0.11965041607618332
sg9
F0.02330871461890638
sg10
F0.01815148233436048
sg11
F4.0
sg12
F0.14216101169586182
ssg17
(dp132
g111
F0.0
sg7
F-0.00021223805379122496
sg8
F0.0
sg9
F0.008538574911653996
sg10
F0.013669195934198797
sg11
F1.0
sg12
F0.0761733204126358
ssg19
(dp133
g111
F0.0
sg7
F0.016326608873896475
sg8
F0.11965041607618332
sg9
F0.06035970593802631
sg10
F0.19187706091906875
sg11
F20.0
sg12
F1.8069937378168106
sssg42
(dp134
g5
(dp135
g111
F0.0
sg7
F0.09118285425938666
sg8
F1.0857844352722168
sg9
F0.09666822047438473
sg10
F0.6764693372242618
sg11
F16.0
sg12
F7.055617809295654
ssg13
(dp136
g111
F0.0
sg7
F0.11764727090485394
sg8
F0.05217995494604111
sg9
F0.19502993114292622
sg10
F0.9092902566808334
sg11
F24.0
sg12
F9.893913269042969
ssg15
(dp137
g111
F0.0
sg7
F0.14492967654950917
sg8
F0.4634597897529602
sg9
F0.15678808838129044
sg10
F0.7002658133569639
sg11
F15.0
sg12
F6.742366313934326
ssg17
(dp138
g111
F0.0
sg7
F0.07853401079773903
sg8
F0.4032907783985138
sg9
F0.13989835511893034
sg10
F0.4675830456629484
sg11
F15.0
sg12
F4.258945465087891
ssg19
(dp139
g111
F0.0
sg7
F0.4322938125114888
sg8
F2.004714958369732
sg9
F0.5883845951175317
sg10
F2.7536084529250076
sg11
F70.0
sg12
F27.95084285736084
sssS'PPP'
p140
(dp141
g5
(dp142
g111
F0.0
sg7
F0.631465470418334
sg8
F1.243451476097107
sg9
F0.5544154979288578
sg10
F3.6613227224879665
sg11
F49.0
sg12
F36.15646743774414
ssg13
(dp143
g111
F0.0
sg7
F0.66395253688097
sg8
F1.0742896795272827
sg9
F0.8732353411614895
sg10
F4.971345164049126
sg11
F78.0
sg12
F50.43522644042969
ssg15
(dp144
g111
F0.0
sg7
F1.1032305844128132
sg8
F0.7064563035964966
sg9
F1.416767179965973
sg10
F7.913939288322581
sg11
F108.0
sg12
F83.94221496582031
ssg17
(dp145
g111
F0.0
sg7
F0.7842329777777195
sg8
F0.877004086971283
sg9
F0.9665299504995346
sg10
F5.820989592683873
sg11
F83.0
sg12
F56.232818603515625
ssg19
(dp146
g111
F0.0
sg7
F3.1828815694898367
sg8
F3.901201546192169
sg9
F3.810947969555855
sg10
F22.367596767543546
sg11
F318.0
sg12
F226.76672744750977
sssg49
(dp147
g5
(dp148
g111
F0.0
sg7
F0.04776560259051621
sg8
F0.1194123700261116
sg9
F0.06379608347924659
sg10
F0.29208359215408564
sg11
F8.0
sg12
F2.3811285495758057
ssg13
(dp149
g111
F0.0
sg7
F0.05185470124706626
sg8
F0.0
sg9
F0.06475548865273595
sg10
F0.43753441917942837
sg11
F8.0
sg12
F4.206113338470459
ssg15
(dp150
g111
F0.0
sg7
F0.025772407127078623
sg8
F0.2573954463005066
sg9
F0.032796683721244335
sg10
F0.17793129477649927
sg11
F3.0
sg12
F2.071726083755493
ssg17
(dp151
g111
F0.0
sg7
F0.026486713555641472
sg8
F0.13255108892917633
sg9
F0.0536809703335166
sg10
F0.11823642905801535
sg11
F2.0
sg12
F1.259305477142334
ssg19
(dp152
g111
F0.0
sg7
F0.15187942452030256
sg8
F0.5093589052557945
sg9
F0.21502922618674347
sg10
F1.0257857351680286
sg11
F21.0
sg12
F9.918273448944092
sssg56
(dp153
g5
(dp154
g111
F0.0
sg7
F1.5264481135091046e-05
sg8
F-0.2443201243877411
sg9
F-0.003750318195670843
sg10
F0.017202454735524952
sg11
F5.0
sg12
F0.1821187436580658
ssg13
(dp155
g111
F0.0
sg7
F0.003918293383321725
sg8
F0.0032252315431833267
sg9
F0.002669523935765028
sg10
F0.006787024060031399
sg11
F0.0
sg12
F0.042769040912389755
ssg15
(dp156
g111
F0.0
sg7
F0.0
sg8
F0.0
sg9
F0.0
sg10
F0.005724258400732651
sg11
F0.0
sg12
F0.02075895108282566
ssg17
(dp157
g111
F0.0
sg7
F3.330319304950535e-05
sg8
F0.13063839077949524
sg9
F0.00970605481415987
sg10
F0.005870080000022426
sg11
F0.0
sg12
F0.0457572340965271
ssg19
(dp158
g111
F0.0
sg7
F0.003966861057506321
sg8
F-0.11045650206506252
sg9
F0.008625260554254055
sg10
F0.03558381719631143
sg11
F5.0
sg12
F0.2914039697498083
ssssS'systs'
p159
(dp160
g5
(dp161
g111
F3.1522070152955064
sg7
F0.04779572115215212
sg8
F0.09411703854273601
sg9
F0.09527078239379173
sg10
F0.609684444778275
sg11
F0.0
sg12
F2.3637593041599243
ssg13
(dp162
g111
F4.409881134023044
sg7
F0.050254672341788695
sg8
F0.08131315545298907
sg9
F0.15005679761325885
sg10
F0.8278297341909376
sg11
F0.0
sg12
F3.297245118352647
ssg15
(dp163
g111
F6.049409372175068
sg7
F0.08350369711298418
sg8
F0.05347178915500986
sg9
F0.24345733156709892
sg10
F1.3178312994302805
sg11
F0.0
sg12
F5.487792522289338
ssg17
(dp164
g111
F6.460765844171055
sg7
F0.059358717903219664
sg8
F0.0663805778048449
sg9
F0.16608854719090008
sg10
F0.9693127530325887
sg11
F0.0
sg12
F3.6762675557856017
ssg19
(dp165
g111
F10.378839517444012
sg7
F0.12371858338699904
sg8
F0.15078282242656063
sg9
F0.34416630033986173
sg10
F1.9321655565621052
sg11
F0.0
sg12
F7.751773560155095
sssS'yields'
p166
(dp167
g5
(dp168
g111
F10.507356717651689
sg7
F0.631465470418334
sg8
F1.243451476097107
sg9
F0.5544154979288578
sg10
F3.6613227224879665
sg11
F49.0
sg12
F36.15646743774414
ssg13
(dp169
g111
F14.699603780076814
sg7
F0.66395253688097
sg8
F1.0742896795272827
sg9
F0.8732353411614895
sg10
F4.971345164049126
sg11
F78.0
sg12
F50.43522644042969
ssg15
(dp170
g111
F20.16469790725023
sg7
F1.1032305844128132
sg8
F0.7064563035964966
sg9
F1.416767179965973
sg10
F7.913939288322581
sg11
F108.0
sg12
F83.94221496582031
ssg17
(dp171
g111
F21.53588614723685
sg7
F0.7842329777777195
sg8
F0.877004086971283
sg9
F0.9665299504995346
sg10
F5.820989592683873
sg11
F83.0
sg12
F56.232818603515625
ssg19
(dp172
g111
F66.90754455221558
sg7
F3.1828815694898367
sg8
F3.901201546192169
sg9
F3.810947969555855
sg10
F22.367596767543546
sg11
F318.0
sg12
F226.76672744750977
sssS'errs'
p173
(dp174
g5
(dp175
g111
F1.7323713853613718
sg7
F0.0457240486447924
sg8
F0.5737826018570158
sg9
F0.09897695604878709
sg10
F0.055514887602275145
sg11
F6.999999999999999
sg12
F0.629467080419261
ssg13
(dp176
g111
F3.5662200495214416
sg7
F0.04559600688446702
sg8
F0.4414828170759465
sg9
F0.12212483142138762
sg10
F0.06983017282519935
sg11
F8.831760866327848
sg12
F0.7689668196856587
ssg15
(dp177
g111
F4.910611043619045
sg7
F0.06146915799459777
sg8
F0.45492448538463
sg9
F0.1409395503199189
sg10
F0.08716003421756606
sg11
F10.392304845413264
sg12
F0.9923206916000021
ssg17
(dp178
g111
F3.205837769535955
sg7
F0.05224481960887511
sg8
F0.5272601597495463
sg9
F0.11831331563634079
sg10
F0.07076943161128615
sg11
F9.1104335791443
sg12
F0.8006416856198032
ssg19
(dp179
g111
F7.078879338195007
sg7
F0.10333277809489315
sg8
F1.0045362688468287
sg9
F0.2420184079354941
sg10
F0.14339923220743633
sg11
F17.832554500127006
sg12
F1.6165600016203083
sssS'controlErrs'
p180
(dp181
g3
(dp182
g5
(dp183
g111
F0.0
sg7
F0.004843305546480768
sg8
F0.25354209255578264
sg9
F0.020961995568136535
sg10
F0.0097058180643371
sg11
F3.3166247903554
sg12
F0.10048604403517752
ssg13
(dp184
g111
F0.0
sg7
F0.004871006467594864
sg8
F0.21992564831405242
sg9
F0.014436972293392103
sg10
F0.004730269023512259
sg11
F1.4142135623730951
sg12
F0.043361521235174824
ssg15
(dp185
g111
F0.0
sg7
F0.0037920385810994773
sg8
F0.27519464951078576
sg9
F0.01381722815090193
sg10
F0.0034248268903841745
sg11
F1.0
sg12
F0.04503350930071758
ssg17
(dp186
g111
F0.0
sg7
F0.0019332056310759518
sg8
F0.1803783003587289
sg9
F0.020925558259156044
sg10
F0.006305041976897234
sg11
F2.0
sg12
F0.06569137444496917
ssg19
(dp187
g111
F0.0
sg7
F0.008080912896232273
sg8
F0.4700205419378916
sg9
F0.03572990637309532
sg10
F0.012963847534291147
sg11
F4.242640687119285
sg12
F0.13535523708403424
sssg21
(dp188
g5
(dp189
g111
F0.0
sg7
F0.0227171400825242
sg8
F0.6103858989261536
sg9
F0.062183996640702774
sg10
F0.030972485748405408
sg11
F9.797958971132712
sg12
F0.3407486842217411
ssg13
(dp190
g111
F0.0
sg7
F0.010211601139763932
sg8
F0.21053770643711212
sg9
F0.03853287800372215
sg10
F0.01669367000760071
sg11
F4.795831523312719
sg12
F0.16968402807764102
ssg15
(dp191
g111
F0.0
sg7
F0.016532232498104163
sg8
F0.009807947238883268
sg9
F0.049894407863087666
sg10
F0.020214988197035554
sg11
F5.7445626465380295
sg12
F0.22095151979862612
ssg17
(dp192
g111
F0.0
sg7
F0.030030450840259872
sg8
F1.008213026122348
sg9
F0.07892111760783245
sg10
F0.038978319709351145
sg11
F13.19090595827292
sg12
F0.4661325411056515
ssg19
(dp193
g111
F0.0
sg7
F0.04237319837358624
sg8
F1.197283079856853
sg9
F0.11861545795526877
sg10
F0.05626658552754487
sg11
F18.05547008526779
sg12
F0.6410939518997477
sssg28
(dp194
g5
(dp195
g111
F0.0
sg7
F0.010743165368916072
sg8
F0.13278212330373093
sg9
F0.026470737167882286
sg10
F0.014345336018802805
sg11
F6.244997998398398
sg12
F0.1416597857906449
ssg13
(dp196
g111
F0.0
sg7
F0.006338415630147602
sg8
F0.0
sg9
F0.0206732275096392
sg10
F0.006815560031078818
sg11
F2.0
sg12
F0.07110692695465154
ssg15
(dp197
g111
F0.0
sg7
F0.001591739070063767
sg8
F0.11344225403643761
sg9
F0.019872264559187662
sg10
F0.006816240380039196
sg11
F2.0
sg12
F0.07660623898295088
ssg17
(dp198
g111
F0.0
sg7
F0.006789487429776439
sg8
F0.1161892493784756
sg9
F0.02647062545657657
sg10
F0.011767851336959895
sg11
F5.0
sg12
F0.14411661256428054
ssg19
(dp199
g111
F0.0
sg7
F0.01429062236820485
sg8
F0.2097621961675851
sg9
F0.047155945252418736
sg10
F0.02090894502448332
sg11
F8.48528137423857
sg12
F0.22751220591278498
sssg35
(dp200
g5
(dp201
g111
F0.0
sg7
F0.005192087569622228
sg8
F0.0
sg9
F0.017883987537401978
sg10
F0.008169668696295684
sg11
F2.6457513110645907
sg12
F0.09148295933458095
ssg13
(dp202
g111
F0.0
sg7
F0.007778279177596836
sg8
F0.0
sg9
F0.026042267083888564
sg10
F0.009244922917070138
sg11
F2.8284271247461903
sg12
F0.10308377000514035
ssg15
(dp203
g111
F0.0
sg7
F0.0008961825157948336
sg8
F0.11950580713485597
sg9
F0.013590892694499462
sg10
F0.004078146343939439
sg11
F2.0
sg12
F0.04007148443685172
ssg17
(dp204
g111
F0.0
sg7
F0.007138244416186227
sg8
F0.0
sg9
F0.017346656901860723
sg10
F0.0033568900384940274
sg11
F1.0
sg12
F0.02963615613524438
ssg19
(dp205
g111
F0.0
sg7
F0.0117990286355315
sg8
F0.11950580713485597
sg9
F0.03851824963586489
sg10
F0.013420583991873427
sg11
F4.47213595499958
sg12
F0.1465585927284057
sssg42
(dp206
g5
(dp207
g111
F0.0
sg7
F0.01713035984460186
sg8
F0.4842353427379324
sg9
F0.04525271702121579
sg10
F0.024202059355953646
sg11
F4.0
sg12
F0.27656879291980613
ssg13
(dp208
g111
F0.0
sg7
F0.020414060317586073
sg8
F0.14433729025357248
sg9
F0.05554994660148728
sg10
F0.029256921806339077
sg11
F4.898979485566356
sg12
F0.335155384353861
ssg15
(dp209
g111
F0.0
sg7
F0.023242024367119113
sg8
F0.32540097036017895
sg9
F0.06005715710379436
sg10
F0.025742326032556606
sg11
F3.872983346207417
sg12
F0.27655150081175855
ssg17
(dp210
g111
F0.0
sg7
F0.017444452544137793
sg8
F0.2716288732300998
sg9
F0.035292412167258445
sg10
F0.01987716050837205
sg11
F3.872983346207417
sg12
F0.21537059461975255
ssg19
(dp211
g111
F0.0
sg7
F0.0394294776569767
sg8
F0.6595340452151554
sg9
F0.09993008276391954
sg10
F0.0499947598263395
sg11
F8.366600265340756
sg12
F0.5582872508902605
sssg140
(dp212
g5
(dp213
g111
F0.0
sg7
F0.0457240486447924
sg8
F0.5737826018570158
sg9
F0.09897695604878709
sg10
F0.055514887602275145
sg11
F6.999999999999999
sg12
F0.629467080419261
ssg13
(dp214
g111
F0.0
sg7
F0.04559600688446702
sg8
F0.4414828170759465
sg9
F0.12212483142138762
sg10
F0.06983017282519935
sg11
F8.831760866327848
sg12
F0.7689668196856587
ssg15
(dp215
g111
F0.0
sg7
F0.06146915799459777
sg8
F0.45492448538463
sg9
F0.1409395503199189
sg10
F0.08716003421756606
sg11
F10.392304845413264
sg12
F0.9923206916000021
ssg17
(dp216
g111
F0.0
sg7
F0.05224481960887511
sg8
F0.5272601597495463
sg9
F0.11831331563634079
sg10
F0.07076943161128615
sg11
F9.1104335791443
sg12
F0.8006416856198032
ssg19
(dp217
g111
F0.0
sg7
F0.10333277809489315
sg8
F1.0045362688468287
sg9
F0.2420184079354941
sg10
F0.14339923220743633
sg11
F17.832554500127006
sg12
F1.6165600016203083
sssg49
(dp218
g5
(dp219
g111
F0.0
sg7
F0.013041240153643774
sg8
F0.1185100176574487
sg9
F0.03391416099797791
sg10
F0.015639362800001312
sg11
F2.8284271247461903
sg12
F0.16017276228174093
ssg13
(dp220
g111
F0.0
sg7
F0.016616478485625544
sg8
F0.0
sg9
F0.03704442351307842
sg10
F0.02022017952953198
sg11
F2.8284271247461903
sg12
F0.216834078333395
ssg15
(dp221
g111
F0.0
sg7
F0.010106243597434809
sg8
F0.24300232845686717
sg9
F0.038574197007830754
sg10
F0.012896390790374662
sg11
F1.7320508075688772
sg12
F0.15333564207325479
ssg17
(dp222
g111
F0.0
sg7
F0.009783681083663438
sg8
F0.13253359710730797
sg9
F0.028701868466852187
sg10
F0.009892361790593213
sg11
F1.4142135623730951
sg12
F0.11719781013722821
ssg19
(dp223
g111
F0.0
sg7
F0.02537790135542719
sg8
F0.30109784171068077
sg9
F0.0695285952533237
sg10
F0.03029226050017756
sg11
F4.582575694955841
sg12
F0.3315410640247073
sssg56
(dp224
g5
(dp225
g111
F0.0
sg7
F1.0813670380213762e-05
sg8
F0.24432012588264823
sg9
F0.01141917709178407
sg10
F0.0036039071500698293
sg11
F2.23606797749979
sg12
F0.04324848699165678
ssg13
(dp226
g111
F0.0
sg7
F0.003543451751974473
sg8
F0.0031745392972650013
sg9
F0.0026695238256363844
sg10
F0.0026416515959076688
sg11
F0.0
sg12
F0.022025202920437262
ssg15
(dp227
g111
F0.0
sg7
F0.0
sg8
F0.0
sg9
F0.0
sg10
F0.0022929210599490026
sg11
F0.0
sg12
F0.01362513649425781
ssg17
(dp228
g111
F0.0
sg7
F3.330319251435178e-05
sg8
F0.1306383938341088
sg9
F0.009427101603094283
sg10
F0.0023702754879086543
sg11
F0.0
sg12
F0.02128949591305762
ssg19
(dp229
g111
F0.0
sg7
F0.0035436247482866614
sg8
F0.27707181660107305
sg9
F0.015046401813863314
sg10
F0.005553572073559884
sg11
F2.23606797749979
sg12
F0.0547213685087754
ssss.