(dp0
S'controlComponentYields'
p1
(dp2
S'FPF'
p3
(dp4
S'eee'
p5
(dp6
S'VVV'
p7
F0.0003252448213970638
sS'ZG'
p8
F0.015149242244660854
sS'TTV'
p9
F0.0008057608829403762
sS'ZZ'
p10
F0.003026516584213823
sS'data'
p11
F-0.38949474692344666
sS'WZ'
p12
F0.024102695286273956
ssS'eem'
p13
(dp14
g7
F0.0006095897679188056
sg8
F0.045155592262744904
sg9
F0.0032059971417766064
sg10
F0.005878175550606102
sg11
F-0.5033571720123291
sg12
F0.029282541945576668
ssS'mmm'
p15
(dp16
g7
F0.0009829052251006942
sg8
F0.09812634438276291
sg9
F0.0008355246391147375
sg10
F0.005303077690768987
sg11
F-0.7265756130218506
sg12
F0.06961330771446228
ssS'mme'
p17
(dp18
g7
F0.00017293878227064852
sg8
F0.03269908204674721
sg9
F0.0035579230170696974
sg10
F0.0020379500347189605
sg11
F-0.22242778539657593
sg12
F0.02088005468249321
ssS'wz'
p19
(dp20
g7
F0.002090678596687212
sg8
F0.19113026093691587
sg9
F0.008405205680901418
sg10
F0.016245719860307872
sg11
F-1.8418553173542023
sg12
F0.14387859962880611
sssS'PPF'
p21
(dp22
g5
(dp23
g7
F-0.014070719305891544
sg8
F-0.0734366700053215
sg9
F-0.027769950916990638
sg10
F-0.10760860592900201
sg11
F11.013927459716797
sg12
F-0.9848974347114563
ssg13
(dp24
g7
F-0.023677570512518287
sg8
F0.024357836693525314
sg9
F-0.0891923219896853
sg10
F-0.19132278157615268
sg11
F15.224560737609863
sg12
F-1.6761218309402466
ssg15
(dp25
g7
F-0.04501229710876942
sg8
F0.007956641726195812
sg9
F-0.11662315484136343
sg10
F-0.2816768839256003
sg11
F22.12915462255478
sg12
F-2.6441969871520996
ssg17
(dp26
g7
F-0.02475439792033285
sg8
F-0.18497762084007263
sg9
F-0.030726503813639283
sg10
F-0.16323246799015578
sg11
F18.562074452638626
sg12
F-1.697265386581421
ssg19
(dp27
g7
F-0.1075149848475121
sg8
F-0.226099812425673
sg9
F-0.26431193156167865
sg10
F-0.7438407394209108
sg11
F66.92971727252007
sg12
F-7.002481639385223
sssS'PFF'
p28
(dp29
g5
(dp30
g7
F0.0006287054457061458
sg8
F0.006713290698826313
sg9
F0.0012892909908259753
sg10
F0.004630404687929968
sg11
F-0.8696860074996948
sg12
F0.03986241668462753
ssg13
(dp31
g7
F0.002145952188584488
sg8
F0.0
sg9
F0.002407012041658163
sg10
F0.006136417898233049
sg11
F-0.6543291807174683
sg12
F0.058878254145383835
ssg15
(dp32
g7
F0.0008780603515186058
sg8
F0.029033711180090904
sg9
F0.012994934106245637
sg10
F0.018112856677362288
sg11
F-1.47024405002594
sg12
F0.2107449620962143
ssg17
(dp33
g7
F0.0008699172030901536
sg8
F-0.003728248178958893
sg9
F0.002420592791168019
sg10
F0.008873306164842106
sg11
F-1.4375789985060692
sg12
F0.09208335727453232
ssg19
(dp34
g7
F0.004522635188899393
sg8
F0.032018753699958324
sg9
F0.019111829929897794
sg10
F0.037752985428367414
sg11
F-4.431838236749172
sg12
F0.401568990200758
sssS'FFP'
p35
(dp36
g5
(dp37
g7
F7.28230653588291e-05
sg8
F0.0
sg9
F-0.0011608864879235625
sg10
F0.004155562361120246
sg11
F-0.44380271434783936
sg12
F0.03905513137578964
ssg13
(dp38
g7
F4.8717080517235445e-05
sg8
F0.0
sg9
F0.0031529914122074842
sg10
F0.004712447160272859
sg11
F-0.5483260154724121
sg12
F0.047393668442964554
ssg15
(dp39
g7
F0.00033091862133005634
sg8
F0.03465772792696953
sg9
F0.0060252080438658595
sg10
F0.007365654484601691
sg11
F-1.5993937253952026
sg12
F0.04696906358003616
ssg17
(dp40
g7
F-8.993977098725736e-05
sg8
F0.0
sg9
F0.0006826276076026261
sg10
F0.00399058593029622
sg11
F-0.3369804918766022
sg12
F0.026058712974190712
ssg19
(dp41
g7
F0.0003625189962188635
sg8
F0.03465772792696953
sg9
F0.008699940575752407
sg10
F0.020224249936291017
sg11
F-2.9285029470920563
sg12
F0.15947657637298107
sssS'PFP'
p42
(dp43
g5
(dp44
g7
F-0.018603930773679167
sg8
F-0.2485560178756714
sg9
F-0.017268836149014533
sg10
F-0.1292288434397051
sg11
F3.028542995452881
sg12
F-1.3967164754867554
ssg13
(dp45
g7
F-0.02425569819752127
sg8
F-0.02779843471944332
sg9
F-0.03951198793947697
sg10
F-0.1844053700438053
sg11
F4.423095166683197
sg12
F-1.9655554294586182
ssg15
(dp46
g7
F-0.08281173929572105
sg8
F-0.21942153573036194
sg9
F-0.0786551795899868
sg10
F-0.4072836938285036
sg11
F8.76783275604248
sg12
F-3.8672702312469482
ssg17
(dp47
g7
F-0.0437295458978042
sg8
F-0.08917450904846191
sg9
F-0.07700149761512876
sg10
F-0.2648910702537606
sg11
F9.696595191955566
sg12
F-2.464726448059082
ssg19
(dp48
g7
F-0.1694009141647257
sg8
F-0.5849504973739386
sg9
F-0.21243750129360706
sg10
F-0.9858089775657746
sg11
F25.916066110134125
sg12
F-9.694268584251404
sssS'FPP'
p49
(dp50
g5
(dp51
g7
F-0.0172945394879207
sg8
F0.022514708340168
sg9
F-0.01635788959902129
sg10
F-0.08523693191818893
sg11
F2.064612627029419
sg12
F-0.7150242924690247
ssg13
(dp52
g7
F-0.01671574114880059
sg8
F0.0
sg9
F-0.018876560789067298
sg10
F-0.13118976006444427
sg11
F2.3176093101501465
sg12
F-1.229953408241272
ssg15
(dp53
g7
F-0.015322579740313813
sg8
F-0.11017565429210663
sg9
F-0.019300662679597735
sg10
F-0.1013490748591721
sg11
F1.7754907608032227
sg12
F-1.1421843767166138
ssg17
(dp54
g7
F-0.01288372470298782
sg8
F-0.05669499188661575
sg9
F-0.027505395701155066
sg10
F-0.06102748238481581
sg11
F1.2465596199035645
sg12
F-0.6984034776687622
ssg19
(dp55
g7
F-0.062216585080022924
sg8
F-0.14435593783855438
sg9
F-0.08204050876884139
sg10
F-0.3788032492266211
sg11
F7.4042723178863525
sg12
F-3.7855655550956726
sssS'FFF'
p56
(dp57
g5
(dp58
g7
F-4.460511604520434e-08
sg8
F0.0008719497709535062
sg9
F9.24551859498024e-05
sg10
F-8.620746712040273e-05
sg11
F0.01606842689216137
sg12
F-0.001033352455124259
ssg13
(dp59
g7
F-0.0001042943340507918
sg8
F-2.486983476046589e-06
sg9
F0.0
sg10
F-0.00048171313073908095
sg11
F0.0
sg12
F-0.0018651311984285712
ssg15
(dp60
g7
F0.0
sg8
F0.0
sg9
F0.0
sg10
F-0.002273075919219991
sg11
F0.0
sg12
F-0.004907903727144003
ssg17
(dp61
g7
F0.0
sg8
F-0.005777388345450163
sg9
F-0.00020141401910223067
sg10
F-0.0001753443339111982
sg11
F0.0
sg12
F-0.00141204206738621
ssg19
(dp62
g7
F-0.00010433893916683701
sg8
F-0.004907925557972703
sg9
F-0.00010895883315242827
sg10
F-0.003016340850990673
sg11
F0.01606842689216137
sg12
F-0.009218429448083043
ssssS'controlComponentErrs'
p63
(dp64
g3
(dp65
g5
(dp66
g7
F0.00013794929641664237
sg8
F0.015048962354455285
sg9
F0.0005050741965827366
sg10
F0.00036208206649480777
sg11
F0.1304678170125551
sg12
F0.003510600913133927
ssg13
(dp67
g7
F0.000502057317508242
sg8
F0.04515559268055823
sg9
F0.004916850172980481
sg10
F0.0013913315497660534
sg11
F0.3619144680812027
sg12
F0.00836829178684817
ssg15
(dp68
g7
F0.0008616679510659264
sg8
F0.07445981205029877
sg9
F0.002065552403020107
sg10
F0.0013975211043624634
sg11
F0.7265756336670115
sg12
F0.020216620963001534
ssg17
(dp69
g7
F9.24781728995963e-05
sg8
F0.02925280374201831
sg9
F0.001504510688545475
sg10
F0.0003082841256915174
sg11
F0.12232366870367428
sg12
F0.004526476946508895
ssg19
(dp70
g7
F0.001010997244705651
sg8
F0.0930886080872045
sg9
F0.005564222740793327
sg10
F0.0020285490488384603
sg11
F0.831191412880491
sg12
F0.022617545908211988
sssg21
(dp71
g5
(dp72
g7
F0.0022855134108077466
sg8
F0.04455378529426747
sg9
F0.006857292747325115
sg10
F0.003401092297591185
sg11
F1.2669899463293763
sg12
F0.03504325348772913
ssg13
(dp73
g7
F0.005881063201999003
sg8
F0.07062497440206571
sg9
F0.026866156217529902
sg10
F0.011317979714868592
sg11
F3.259659409551387
sg12
F0.11083663760890085
ssg15
(dp74
g7
F0.0101410688555046
sg8
F0.0053605063372715285
sg9
F0.029370012374571052
sg10
F0.01349149993141309
sg11
F3.9675087340240163
sg12
F0.14038263825021083
ssg17
(dp75
g7
F0.003327305837272631
sg8
F0.07830016872464958
sg9
F0.008426068961304378
sg10
F0.0041558023275647515
sg11
F1.5648925473554705
sg12
F0.04881934636105399
ssg19
(dp76
g7
F0.012398496586430257
sg8
F0.11459746176875228
sg9
F0.04126026028456864
sg10
F0.01841074026290152
sg11
F5.515492473904951
sg12
F0.18868864182208256
sssg28
(dp77
g5
(dp78
g7
F0.00017579368526400316
sg8
F0.0070360299249495484
sg9
F0.0010461084958180954
sg10
F0.0003537379020167571
sg11
F0.16540103178933688
sg12
F0.0036790187436440774
ssg13
(dp79
g7
F0.0014934558119417427
sg8
F0.0
sg9
F0.0036329749658389715
sg10
F0.0008626645232434221
sg11
F0.3865153702033505
sg12
F0.00858256990142175
ssg15
(dp80
g7
F0.0006573817420643041
sg8
F0.028252310397413428
sg9
F0.008693811376878404
sg10
F0.0025621550846224193
sg11
F0.7432752526489895
sg12
F0.03496077653090918
ssg17
(dp81
g7
F0.00037591595777531684
sg8
F0.0040088670323287145
sg9
F0.0010776159183642072
sg10
F0.0007662975428475918
sg11
F0.32772455986647153
sg12
F0.008240363696657479
ssg19
(dp82
g7
F0.001683679673842653
sg8
F0.029389960441951475
sg9
F0.00954130297242928
sg10
F0.0028321672240206423
sg11
F0.914665578810366
sg12
F0.03711273601509643
sssg35
(dp83
g5
(dp84
g7
F0.0002779778205013784
sg8
F0.0
sg9
F0.0012587043864992768
sg10
F0.0006701655762620817
sg11
F0.1981128858346052
sg12
F0.006629713154545293
ssg13
(dp85
g7
F0.0006833505319345656
sg8
F0.0
sg9
F0.0016259260674505594
sg10
F0.0006384654935496721
sg11
F0.22291103410028426
sg12
F0.006784411453935594
ssg15
(dp86
g7
F0.0002007065124156459
sg8
F0.03461715730655113
sg9
F0.003513562296404844
sg10
F0.0017130738897710156
sg11
F0.8047155853674717
sg12
F0.013852859383563666
ssg17
(dp87
g7
F0.0015968496524898109
sg8
F0.0
sg9
F0.005280178204986914
sg10
F0.0009803799376397466
sg11
F0.33698048519963963
sg12
F0.010307473672573942
ssg19
(dp88
g7
F0.0017704382324635988
sg8
F0.03461715730655113
sg9
F0.006667336364437021
sg10
F0.002180029142007516
sg11
F0.9219875624953249
sg12
F0.019700940634889398
sssg42
(dp89
g5
(dp90
g7
F0.003438997314547023
sg8
F0.15270252012148802
sg9
F0.011651137626918948
sg10
F0.0052257338817195504
sg11
F0.7880760350237993
sg12
F0.061935737231704154
ssg13
(dp91
g7
F0.00465178975195903
sg8
F0.044937160671667226
sg9
F0.012867728443892442
sg10
F0.006766328028955233
sg11
F0.9454629480505223
sg12
F0.07544922283946144
ssg15
(dp92
g7
F0.01405951852049111
sg8
F0.15514441231385123
sg9
F0.033984341088666596
sg10
F0.015750298348793046
sg11
F2.325621920355318
sg12
F0.1648651505019837
ssg17
(dp93
g7
F0.009930646976873217
sg8
F0.07257764274210608
sg9
F0.02131858472387313
sg10
F0.011883827172812788
sg11
F2.585944446192008
sg12
F0.12846450264167386
ssg19
(dp94
g7
F0.018159120596361666
sg8
F0.2338262409544655
sg9
F0.04371206855282594
sg10
F0.021503226175326656
sg11
F3.6892533144721393
sg12
F0.23067784259119423
sssg49
(dp95
g5
(dp96
g7
F0.005014295730046174
sg8
F0.05847941995541481
sg9
F0.01058369688362832
sg10
F0.005369053254934174
sg11
F0.8066604684560555
sg12
F0.05277663296277473
ssg13
(dp97
g7
F0.005409515848266399
sg8
F0.0
sg9
F0.012097305703265077
sg10
F0.006906835386766133
sg11
F0.9011478075420873
sg12
F0.07295236105838157
ssg15
(dp98
g7
F0.005329254866156034
sg8
F0.10392529169722489
sg9
F0.020496848914711693
sg10
F0.00764309860209471
sg11
F1.064542130299178
sg12
F0.08952640574673176
ssg17
(dp99
g7
F0.005077039555736854
sg8
F0.05668067498518981
sg9
F0.014612107689129093
sg10
F0.005531988053336422
sg11
F0.9238407435100057
sg12
F0.06807923006011928
ssg19
(dp100
g7
F0.010420331638674897
sg8
F0.13203411577865687
sg9
F0.0298662677874889
sg10
F0.01286666063816883
sg11
F1.8572830018493913
sg12
F0.14407351894913584
sssg56
(dp101
g5
(dp102
g7
F3.173475208094461e-08
sg8
F0.0008719497887647281
sg9
F7.612783593935047e-05
sg10
F2.4045781167350645e-05
sg11
F0.008582423849358443
sg12
F0.00029786451316296634
ssg13
(dp103
g7
F9.553396935841028e-05
sg8
F2.4869834589765824e-06
sg9
F0.0
sg10
F0.00028150521835322963
sg11
F0.0
sg12
F0.0012149217194554877
ssg15
(dp104
g7
F0.0
sg8
F0.0
sg9
F0.0
sg10
F0.0011160874938968754
sg11
F0.0
sg12
F0.0038561047783948984
ssg17
(dp105
g7
F0.0
sg8
F0.005777388408446179
sg9
F0.0002179166751070827
sg10
F8.528523645047382e-05
sg11
F0.0
sg12
F0.0006970537496328094
ssg19
(dp106
g7
F9.553397462928131e-05
sg8
F0.005842817765535894
sg9
F0.0002308313771880558
sg10
F0.0011544471634256238
sg11
F0.008582423849358443
sg12
F0.004113415374654451
ssssS'controlYields'
p107
(dp108
g3
(dp109
g5
(dp110
S'datadriven'
p111
F0.0
sg7
F0.01204057034192374
sg8
F0.2603207230567932
sg9
F0.023629562463611364
sg10
F0.10381731810048223
sg11
F11.0
sg12
F0.8389156460762024
ssg13
(dp112
g111
F0.0
sg7
F0.005569410968746524
sg8
F0.2199256420135498
sg9
F0.005918487382587045
sg10
F0.025698953890241683
sg11
F2.0
sg12
F0.17929303646087646
ssg15
(dp113
g111
F0.0
sg7
F0.0043526453628146555
sg8
F0.35230520367622375
sg9
F0.016182491555809975
sg10
F0.01334100030362606
sg11
F1.0
sg12
F0.16628354787826538
ssg17
(dp114
g111
F0.0
sg7
F0.0033797055075410753
sg8
F0.2440873235464096
sg9
F0.05442369729280472
sg10
F0.041083033895120025
sg11
F4.0
sg12
F0.3618900179862976
ssg19
(dp115
g111
F0.0
sg7
F0.025342332181025995
sg8
F1.0766388922929764
sg9
F0.1001542386948131
sg10
F0.18394030618947
sg11
F18.0
sg12
F1.5463822484016418
sssg21
(dp116
g5
(dp117
g111
F0.0
sg7
F0.15102433366701007
sg8
F0.9366777539253235
sg9
F0.29158224165439606
sg10
F1.0856104204283383
sg11
F96.0
sg12
F10.32569694519043
ssg13
(dp118
g111
F0.0
sg7
F0.042610807344317436
sg8
F-0.003479798324406147
sg9
F0.1303090788424015
sg10
F0.28987613353508124
sg11
F23.0
sg12
F2.647350311279297
ssg15
(dp119
g111
F0.0
sg7
F0.07588468119502068
sg8
F-0.014424911700189114
sg9
F0.1925717182457447
sg10
F0.43345215882882027
sg11
F33.0
sg12
F4.230156421661377
ssg17
(dp120
g111
F0.0
sg7
F0.23780764732509851
sg8
F2.448251247406006
sg9
F0.29399846121668816
sg10
F1.677180480077368
sg11
F174.0
sg12
F17.738473892211914
ssg19
(dp121
g111
F0.0
sg7
F0.5073274695314467
sg8
F3.367024291306734
sg9
F0.9084614999592304
sg10
F3.486119192869608
sg11
F326.0
sg12
F34.94167757034302
sssg28
(dp122
g5
(dp123
g111
F0.0
sg7
F0.03662335406988859
sg8
F0.12003728002309799
sg9
F0.025057310122065246
sg10
F0.23476090243639192
sg11
F39.0
sg12
F1.8813936710357666
ssg13
(dp124
g111
F0.0
sg7
F0.011441208538599312
sg8
F0.0
sg9
F0.007770490366965532
sg10
F0.05472348746843636
sg11
F4.0
sg12
F0.49978724122047424
ssg15
(dp125
g111
F0.0
sg7
F0.002396655182117513
sg8
F0.11532837152481079
sg9
F0.03552368236705661
sg10
F0.052097805972152855
sg11
F4.0
sg12
F0.5023275017738342
ssg17
(dp126
g111
F0.0
sg7
F0.016446937574073672
sg8
F-0.10924354940652847
sg9
F0.0646307528950274
sg10
F0.15510033484137042
sg11
F25.0
sg12
F1.7604327201843262
ssg19
(dp127
g111
F0.0
sg7
F0.06690815536467909
sg8
F0.1261221021413803
sg9
F0.13298223575111479
sg10
F0.49668253071835156
sg11
F72.0
sg12
F4.643941134214401
sssg35
(dp128
g5
(dp129
g111
F0.0
sg7
F0.005036420568103495
sg8
F0.0
sg9
F-0.021838555112481117
sg10
F0.06669619516469538
sg11
F7.0
sg12
F0.679230809211731
ssg13
(dp130
g111
F0.0
sg7
F0.01021058346668724
sg8
F0.0
sg9
F0.05224662646651268
sg10
F0.08565473766066134
sg11
F8.0
sg12
F0.8448081612586975
ssg15
(dp131
g111
F0.0
sg7
F0.0012917239655507728
sg8
F0.11965041607618332
sg9
F0.02330871461890638
sg10
F0.019380483077839017
sg11
F4.0
sg12
F0.14216101169586182
ssg17
(dp132
g111
F0.0
sg7
F-0.00021223805379122496
sg8
F0.0
sg9
F0.008538574911653996
sg10
F0.01263602013932541
sg11
F1.0
sg12
F0.0761733129620552
ssg19
(dp133
g111
F0.0
sg7
F0.016326489946550282
sg8
F0.11965041607618332
sg9
F0.06225536088459194
sg10
F0.18436743604252115
sg11
F20.0
sg12
F1.7423732951283455
sssg42
(dp134
g5
(dp135
g111
F0.0
sg7
F0.09306735405698419
sg8
F0.6865536570549011
sg9
F0.08827884402126074
sg10
F0.6410850938700605
sg11
F16.0
sg12
F6.877164840698242
ssg13
(dp136
g111
F0.0
sg7
F0.11275096889585257
sg8
F0.05217995494604111
sg9
F0.18249513395130634
sg10
F0.8922922576566634
sg11
F24.0
sg12
F9.772941589355469
ssg15
(dp137
g111
F0.0
sg7
F0.14486262877471745
sg8
F0.4634597897529602
sg9
F0.15756509453058243
sg10
F0.679690088814823
sg11
F15.0
sg12
F6.664072036743164
ssg17
(dp138
g111
F0.0
sg7
F0.07847631559707224
sg8
F0.168918177485466
sg9
F0.13989997934550047
sg10
F0.45091813087613275
sg11
F15.0
sg12
F4.225861549377441
ssg19
(dp139
g111
F0.0
sg7
F0.42915726732462645
sg8
F1.3711115792393684
sg9
F0.56823905184865
sg10
F2.6639855712176796
sg11
F70.0
sg12
F27.540040016174316
sssS'PPP'
p140
(dp141
g5
(dp142
g111
F0.0
sg7
F0.6322070155292749
sg8
F1.2374581098556519
sg9
F0.5744963139295578
sg10
F3.538533488899702
sg11
F49.0
sg12
F35.48750686645508
ssg13
(dp143
g111
F0.0
sg7
F0.6567901112139225
sg8
F0.8938038349151611
sg9
F0.8939568810164928
sg10
F4.8448352664127015
sg11
F78.0
sg12
F49.861541748046875
ssg15
(dp144
g111
F0.0
sg7
F1.0905543025583029
sg8
F0.7064520120620728
sg9
F1.398928940296173
sg10
F7.7095096341799945
sg11
F108.0
sg12
F83.15705108642578
ssg17
(dp145
g111
F0.0
sg7
F0.7826185300946236
sg8
F0.877004086971283
sg9
F0.9492151588201523
sg10
F5.585474138598329
sg11
F83.0
sg12
F55.43526077270508
ssg19
(dp146
g111
F0.0
sg7
F3.162169959396124
sg8
F3.7147180438041687
sg9
F3.816597294062376
sg10
F21.678352528090727
sg11
F318.0
sg12
F223.9413604736328
sssg49
(dp147
g5
(dp148
g111
F0.0
sg7
F0.045383021235466
sg8
F-0.09397394210100174
sg9
F0.059970791488012765
sg10
F0.27381556387990713
sg11
F8.0
sg12
F2.46875
ssg13
(dp149
g111
F0.0
sg7
F0.06087394632049836
sg8
F0.0
sg9
F0.06470690481364727
sg10
F0.4315661218861351
sg11
F8.0
sg12
F4.247490406036377
ssg15
(dp150
g111
F0.0
sg7
F0.025772407127078623
sg8
F0.2573954463005066
sg9
F0.02358569484204054
sg10
F0.177609552629292
sg11
F3.0
sg12
F2.0440030097961426
ssg17
(dp151
g111
F0.0
sg7
F0.026486713555641472
sg8
F0.13255108892917633
sg9
F0.053680977784097195
sg10
F0.10986305493861437
sg11
F2.0
sg12
F1.2212271690368652
ssg19
(dp152
g111
F0.0
sg7
F0.15851608823868446
sg8
F0.2959725931286812
sg9
F0.20194436892779777
sg10
F0.9928542933339486
sg11
F21.0
sg12
F9.981470584869385
sssg56
(dp153
g5
(dp154
g111
F0.0
sg7
F1.5264481135091046e-05
sg8
F-0.2443201243877411
sg9
F-0.010011464357376099
sg10
F0.01697211153805256
sg11
F5.0
sg12
F0.18177759647369385
ssg13
(dp155
g111
F0.0
sg7
F0.003918293383321725
sg8
F5.1103561418130994e-05
sg9
F0.002669523935765028
sg10
F0.006759199080988765
sg11
F0.0
sg12
F0.042769040912389755
ssg15
(dp156
g111
F0.0
sg7
F0.0
sg8
F0.0
sg9
F0.0
sg10
F0.005713740480132401
sg11
F0.0
sg12
F0.02075895108282566
ssg17
(dp157
g111
F0.0
sg7
F3.330319304950535e-05
sg8
F0.1306375414133072
sg9
F0.009706055745482445
sg10
F0.005883908859686926
sg11
F0.0
sg12
F0.04575705528259277
ssg19
(dp158
g111
F0.0
sg7
F0.003966861057506321
sg8
F-0.11363147941301577
sg9
F0.002364115323871374
sg10
F0.03532895995886065
sg11
F5.0
sg12
F0.29106264375150204
ssssS'systs'
p159
(dp160
g5
(dp161
g111
F3.2187331192681894
sg7
F0.04785184881867487
sg8
F0.09366339970568363
sg9
F0.09872147065672689
sg10
F0.5892375485663672
sg11
F0.0
sg12
F2.320025447216534
ssg13
(dp162
g111
F4.461477307758605
sg7
F0.04971254721224134
sg8
F0.06765215337907242
sg9
F0.15361758789016347
sg10
F0.8067632720007357
sg11
F0.0
sg12
F3.2597400016924283
ssg15
(dp163
g111
F6.086318864023269
sg7
F0.0825442273380765
sg8
F0.053471464328091765
sg9
F0.24039200771482833
sg10
F1.2837896184234112
sg11
F0.0
sg12
F5.436461776872774
ssg17
(dp164
g111
F6.5382591948678055
sg7
F0.05923652010319606
sg8
F0.0663805778048449
sg9
F0.163113172663235
sg10
F0.9300946562560023
sg11
F0.0
sg12
F3.624126545427493
ssg19
(dp165
g111
F10.49081185011712
sg7
F0.12281551842691153
sg8
F0.1435800296292895
sg9
F0.3431304657812411
sg10
F1.8738355636654818
sg11
F0.0
sg12
F7.6614510912122205
sssS'yields'
p166
(dp167
g5
(dp168
g111
F10.729110397560632
sg7
F0.6322070155292749
sg8
F1.2374581098556519
sg9
F0.5744963139295578
sg10
F3.538533488899702
sg11
F49.0
sg12
F35.48750686645508
ssg13
(dp169
g111
F14.871591025862017
sg7
F0.6567901112139225
sg8
F0.8938038349151611
sg9
F0.8939568810164928
sg10
F4.8448352664127015
sg11
F78.0
sg12
F49.861541748046875
ssg15
(dp170
g111
F20.28772954674423
sg7
F1.0905543025583029
sg8
F0.7064520120620728
sg9
F1.398928940296173
sg10
F7.7095096341799945
sg11
F108.0
sg12
F83.15705108642578
ssg17
(dp171
g111
F21.79419731622602
sg7
F0.7826185300946236
sg8
F0.877004086971283
sg9
F0.9492151588201523
sg10
F5.585474138598329
sg11
F83.0
sg12
F55.43526077270508
ssg19
(dp172
g111
F67.6826282863929
sg7
F3.162169959396124
sg8
F3.7147180438041687
sg9
F3.816597294062376
sg10
F21.678352528090727
sg11
F318.0
sg12
F223.9413604736328
sssS'errs'
p173
(dp174
g5
(dp175
g111
F1.7314900149966328
sg7
F0.04566300447366466
sg8
F0.5738137526947137
sg9
F0.09763201381444747
sg10
F0.054606680963327374
sg11
F6.999999999999999
sg12
F0.623490164099508
ssg13
(dp176
g111
F3.5630515495057815
sg7
F0.0454216524922413
sg8
F0.40290445308480416
sg9
F0.12181205099489238
sg10
F0.06897272226301147
sg11
F8.831760866327848
sg12
F0.7648613139045896
ssg15
(dp177
g111
F4.910536807724641
sg7
F0.06108279435198622
sg8
F0.45492448536422236
sg9
F0.14037342795968555
sg10
F0.08598866052268474
sg11
F10.392304845413264
sg12
F0.9877804889734391
ssg17
(dp178
g111
F3.204018309122747
sg7
F0.052344238458324976
sg8
F0.5272601595604193
sg9
F0.11781963794291957
sg10
F0.06930138247799171
sg11
F9.1104335791443
sg12
F0.7949375103044434
ssg19
(dp179
g111
F7.0761924141222226
sg7
F0.10304981105425122
sg8
F0.9882073589792462
sg9
F0.2407412558146202
sg10
F0.1411943956892325
sg11
F17.832554500127006
sg12
F1.6066700824756526
sssS'controlErrs'
p180
(dp181
g3
(dp182
g5
(dp183
g111
F0.0
sg7
F0.004840473886855525
sg8
F0.2535216334728073
sg9
F0.02404567661184702
sg10
F0.009572194636939702
sg11
F3.3166247903554
sg12
F0.09557838534633158
ssg13
(dp184
g111
F0.0
sg7
F0.004872695545785305
sg8
F0.21992564831405242
sg9
F0.014436972293392103
sg10
F0.004680063511243799
sg11
F1.4142135623730951
sg12
F0.04340669771425341
ssg15
(dp185
g111
F0.0
sg7
F0.0037920385810994773
sg8
F0.27519464951078576
sg9
F0.01381722815090193
sg10
F0.003425224635780984
sg11
F1.0
sg12
F0.04503350930071758
ssg17
(dp186
g111
F0.0
sg7
F0.0019332056310759518
sg8
F0.18037830034019844
sg9
F0.020925558259156044
sg10
F0.005758652979607946
sg11
F2.0
sg12
F0.06380715048917168
ssg19
(dp187
g111
F0.0
sg7
F0.008080234522822768
sg8
F0.47000950605073916
sg9
F0.037622008385426585
sg10
F0.012586665665768725
sg11
F4.242640687119285
sg12
F0.1308385973837768
sssg21
(dp188
g5
(dp189
g111
F0.0
sg7
F0.022411773381237465
sg8
F0.5142547080671962
sg9
F0.06299401240782489
sg10
F0.03047857985169128
sg11
F9.797958971132712
sg12
F0.3374176462380706
ssg13
(dp190
g111
F0.0
sg7
F0.01021160083951452
sg8
F0.10242062089425358
sg9
F0.03757091935007421
sg10
F0.016543226569125612
sg11
F4.795831523312719
sg12
F0.16983613874580142
ssg15
(dp191
g111
F0.0
sg7
F0.0165320260778137
sg8
F0.009807947238883268
sg9
F0.04982277859378945
sg10
F0.020014069098231967
sg11
F5.7445626465380295
sg12
F0.2187551992408721
ssg17
(dp192
g111
F0.0
sg7
F0.02959040645532443
sg8
F0.9502245476755535
sg9
F0.07861115903484742
sg10
F0.038352274847417316
sg11
F13.19090595827292
sg12
F0.46167773737178175
ssg19
(dp193
g111
F0.0
sg7
F0.0418982627113146
sg8
F1.0853436207892377
sg9
F0.11849828341227063
sg10
F0.05544440569556127
sg11
F18.05547008526779
sg12
F0.6353700908892111
sssg28
(dp194
g5
(dp195
g111
F0.0
sg7
F0.010608283405904575
sg8
F0.13278212330373093
sg9
F0.02539139533600462
sg10
F0.014295661854118607
sg11
F6.244997998398398
sg12
F0.14175829818689006
ssg13
(dp196
g111
F0.0
sg7
F0.006337123173035899
sg8
F0.0
sg9
F0.020673233928708352
sg10
F0.00689054404004429
sg11
F2.0
sg12
F0.07107936861417331
ssg15
(dp197
g111
F0.0
sg7
F0.001591739070063767
sg8
F0.11344225403643761
sg9
F0.019872264559187662
sg10
F0.006816072084899274
sg11
F2.0
sg12
F0.07650156389449143
ssg17
(dp198
g111
F0.0
sg7
F0.006790125316652173
sg8
F0.1161892493784756
sg9
F0.026470624994824814
sg10
F0.011319263553678686
sg11
F5.0
sg12
F0.14087343499467364
ssg19
(dp199
g111
F0.0
sg7
F0.014189229789288325
sg8
F0.2097621961675851
sg9
F0.04655863447855151
sg10
F0.020650184286811424
sg11
F8.48528137423857
sg12
F0.22548948027110768
sssg35
(dp200
g5
(dp201
g111
F0.0
sg7
F0.005192087571522637
sg8
F0.0
sg9
F0.0182539948106235
sg10
F0.00775114879786637
sg11
F2.6457513110645907
sg12
F0.08914880551058497
ssg13
(dp202
g111
F0.0
sg7
F0.007778279341828612
sg8
F0.0
sg9
F0.026042385492940894
sg10
F0.009228584337576479
sg11
F2.8284271247461903
sg12
F0.10114028546864462
ssg15
(dp203
g111
F0.0
sg7
F0.0008961825157948336
sg8
F0.11950580713485597
sg9
F0.013590892694499462
sg10
F0.004288452664947239
sg11
F2.0
sg12
F0.04007148443685172
ssg17
(dp204
g111
F0.0
sg7
F0.007138244416186227
sg8
F0.0
sg9
F0.017346656901860723
sg10
F0.003207654740146285
sg11
F1.0
sg12
F0.02963615600931183
ssg19
(dp205
g111
F0.0
sg7
F0.011799028744634356
sg8
F0.11950580713485597
sg9
F0.038691511195784005
sg10
F0.013188136780982488
sg11
F4.47213595499958
sg12
F0.14373897340882935
sssg42
(dp206
g5
(dp207
g111
F0.0
sg7
F0.017160829120422466
sg8
F0.39227921492579265
sg9
F0.04768327070202966
sg10
F0.023493584489611936
sg11
F4.0
sg12
F0.27247225838397776
ssg13
(dp208
g111
F0.0
sg7
F0.019816137532264293
sg8
F0.14433729025357248
sg9
F0.05630452680749362
sg10
F0.029013374331105637
sg11
F4.898979485566356
sg12
F0.33350441110736634
ssg15
(dp209
g111
F0.0
sg7
F0.02324192767422192
sg8
F0.32540097036017895
sg9
F0.060054897753033396
sg10
F0.025324955930514367
sg11
F3.872983346207417
sg12
F0.2752022300759928
ssg17
(dp210
g111
F0.0
sg7
F0.01744439040339178
sg8
F0.13730172318533485
sg9
F0.035292371795721644
sg10
F0.019503115999533357
sg11
F3.872983346207417
sg12
F0.21438797588478753
ssg19
(dp211
g111
F0.0
sg7
F0.03913652157969156
sg8
F0.5472237115856262
sg9
F0.10146938599870185
sg10
F0.04914722096742748
sg11
F8.366600265340756
sg12
F0.5542244991514831
sssg140
(dp212
g5
(dp213
g111
F0.0
sg7
F0.04566300447366466
sg8
F0.5738137526947137
sg9
F0.09763201381444747
sg10
F0.054606680963327374
sg11
F6.999999999999999
sg12
F0.623490164099508
ssg13
(dp214
g111
F0.0
sg7
F0.0454216524922413
sg8
F0.40290445308480416
sg9
F0.12181205099489238
sg10
F0.06897272226301147
sg11
F8.831760866327848
sg12
F0.7648613139045896
ssg15
(dp215
g111
F0.0
sg7
F0.06108279435198622
sg8
F0.45492448536422236
sg9
F0.14037342795968555
sg10
F0.08598866052268474
sg11
F10.392304845413264
sg12
F0.9877804889734391
ssg17
(dp216
g111
F0.0
sg7
F0.052344238458324976
sg8
F0.5272601595604193
sg9
F0.11781963794291957
sg10
F0.06930138247799171
sg11
F9.1104335791443
sg12
F0.7949375103044434
ssg19
(dp217
g111
F0.0
sg7
F0.10304981105425122
sg8
F0.9882073589792462
sg9
F0.2407412558146202
sg10
F0.1411943956892325
sg11
F17.832554500127006
sg12
F1.6066700824756526
sssg49
(dp218
g5
(dp219
g111
F0.0
sg7
F0.012893002257910374
sg8
F0.24408674877418626
sg9
F0.034193173169064804
sg10
F0.01501362515269002
sg11
F2.8284271247461903
sg12
F0.16364931883452224
ssg13
(dp220
g111
F0.0
sg7
F0.017932519573558323
sg8
F0.0
sg9
F0.03704436415990583
sg10
F0.020115548132993318
sg11
F2.8284271247461903
sg12
F0.2179312396541096
ssg15
(dp221
g111
F0.0
sg7
F0.010106243597434809
sg8
F0.24300232845686717
sg9
F0.03745457715213899
sg10
F0.012913939000770727
sg11
F1.7320508075688772
sg12
F0.15233386370837187
ssg17
(dp222
g111
F0.0
sg7
F0.009783681083663438
sg8
F0.13253359710730797
sg9
F0.0287018699903091
sg10
F0.009429990543080831
sg11
F1.4142135623730951
sg12
F0.11520652987702228
ssg19
(dp223
g111
F0.0
sg7
F0.026185135872782105
sg8
F0.36904420727714193
sg9
F0.0690514351622579
sg10
F0.029761363528482333
sg11
F4.582575694955841
sg12
F0.3327961468088327
sssg56
(dp224
g5
(dp225
g111
F0.0
sg7
F1.0813670380213762e-05
sg8
F0.24432012588264823
sg9
F0.009549641231268712
sg10
F0.003602667228352357
sg11
F2.23606797749979
sg12
F0.043247135386133416
ssg13
(dp226
g111
F0.0
sg7
F0.003543451751974473
sg8
F5.1103562030736724e-05
sg9
F0.0026695238256363844
sg10
F0.0026413303819284722
sg11
F0.0
sg12
F0.022025202919734022
ssg15
(dp227
g111
F0.0
sg7
F0.0
sg8
F0.0
sg9
F0.0
sg10
F0.0022928973427963537
sg11
F0.0
sg12
F0.01362513649425781
ssg17
(dp228
g111
F0.0
sg7
F3.330319251435178e-05
sg8
F0.13063753729419006
sg9
F0.009427101593780912
sg10
F0.0023707850794410052
sg11
F0.0
sg12
F0.021289410332783493
ssg19
(dp229
g111
F0.0
sg7
F0.0035436247482866614
sg8
F0.2770532307575171
sg9
F0.013681821865565064
sg10
F0.005552822477105236
sg11
F2.23606797749979
sg12
F0.054720266991004324
ssss.