(dp0
S'controlComponentYields'
p1
(dp2
S'FPF'
p3
(dp4
S'eee'
p5
(dp6
S'VVV'
p7
F0.0003252448213970638
sS'ZG'
p8
F0.015149288810789585
sS'TTV'
p9
F0.0008057608829403762
sS'ZZ'
p10
F0.003150320451823063
sS'data'
p11
F-0.38949474692344666
sS'WZ'
p12
F0.024052519351243973
ssS'eem'
p13
(dp14
g7
F0.0006095897679188056
sg8
F0.045155592262744904
sg9
F0.0032059971417766064
sg10
F0.006650807321420871
sg11
F-0.5033571720123291
sg12
F0.029282541945576668
ssS'mmm'
p15
(dp16
g7
F0.0009829052251006942
sg8
F0.09812634438276291
sg9
F0.0008355246391147375
sg10
F0.005551782116526738
sg11
F-0.7265756130218506
sg12
F0.0695677325129509
ssS'mme'
p17
(dp18
g7
F0.00017293878227064852
sg8
F0.03269908204674721
sg9
F0.0035579230170696974
sg10
F0.0022766220063203946
sg11
F-0.22242778539657593
sg12
F0.022114736959338188
ssS'wz'
p19
(dp20
g7
F0.002090678596687212
sg8
F0.1911303075030446
sg9
F0.008405205680901418
sg10
F0.017629531896091066
sg11
F-1.8418553173542023
sg12
F0.14501753076910973
sssS'PPF'
p21
(dp22
g5
(dp23
g7
F-0.014024382748175412
sg8
F-0.12857955694198608
sg9
F-0.027719430392608047
sg10
F-0.11440358293084785
sg11
F11.013927459716797
sg12
F-1.0128425359725952
ssg13
(dp24
g7
F-0.023209836683236063
sg8
F0.01700744964182377
sg9
F-0.0891923219896853
sg10
F-0.2000851924180349
sg11
F15.224560737609863
sg12
F-1.69363272190094
ssg15
(dp25
g7
F-0.04846919630654156
sg8
F0.13336126506328583
sg9
F-0.11870322935283184
sg10
F-0.2923855045810342
sg11
F22.12915462255478
sg12
F-2.7029216289520264
ssg17
(dp26
g7
F-0.025713220005854964
sg8
F-0.24465514719486237
sg9
F-0.030375089729204774
sg10
F-0.17361070580386695
sg11
F18.562074452638626
sg12
F-1.7417727708816528
ssg19
(dp27
g7
F-0.111416635743808
sg8
F-0.22286598943173885
sg9
F-0.26599007146432996
sg10
F-0.7804849857337839
sg11
F66.92971727252007
sg12
F-7.151169657707214
sssS'PFF'
p28
(dp29
g5
(dp30
g7
F0.0006286370007728692
sg8
F0.006713290698826313
sg9
F0.0011123799813503865
sg10
F0.005044990004250849
sg11
F-0.8696860074996948
sg12
F0.040244635194540024
ssg13
(dp31
g7
F0.002145952188584488
sg8
F0.0
sg9
F0.002407012041658163
sg10
F0.006145654173451476
sg11
F-0.6543291807174683
sg12
F0.05867311730980873
ssg15
(dp32
g7
F0.0008780603515186058
sg8
F0.029033711180090904
sg9
F0.012994934106245637
sg10
F0.018564095095825905
sg11
F-1.47024405002594
sg12
F0.21212667226791382
ssg17
(dp33
g7
F0.0008650755044072866
sg8
F-0.003728248178958893
sg9
F0.002420592791168019
sg10
F0.010064216920964427
sg11
F-1.4375789985060692
sg12
F0.09520886838436127
ssg19
(dp34
g7
F0.00451772504528325
sg8
F0.032018753699958324
sg9
F0.018934918920422206
sg10
F0.03981895619449266
sg11
F-4.431838236749172
sg12
F0.40625329315662384
sssS'FFP'
p35
(dp36
g5
(dp37
g7
F7.28288827351875e-05
sg8
F0.0
sg9
F-0.001012527267448604
sg10
F0.004407590764458291
sg11
F-0.44380271434783936
sg12
F0.04041296988725662
ssg13
(dp38
g7
F4.8717080517235445e-05
sg8
F0.0
sg9
F0.0031529914122074842
sg10
F0.004819746798602864
sg11
F-0.5483260154724121
sg12
F0.04710502550005913
ssg15
(dp39
g7
F0.00033091862133005634
sg8
F0.03465772792696953
sg9
F0.0060252080438658595
sg10
F0.006546062824781984
sg11
F-1.5993937253952026
sg12
F0.04696906358003616
ssg17
(dp40
g7
F-8.993977098725736e-05
sg8
F0.0
sg9
F0.0006826276076026261
sg10
F0.004140716991969384
sg11
F-0.3369804918766022
sg12
F0.026058712974190712
ssg19
(dp41
g7
F0.00036252481359522193
sg8
F0.03465772792696953
sg9
F0.008848299796227366
sg10
F0.019914117379812524
sg11
F-2.9285029470920563
sg12
F0.16054577194154263
sssS'PFP'
p42
(dp43
g5
(dp44
g7
F-0.01907173020299524
sg8
F-0.2485560178756714
sg9
F-0.017391003319062293
sg10
F-0.14111506386507244
sg11
F3.028542995452881
sg12
F-1.4278264045715332
ssg13
(dp45
g7
F-0.024643195909447968
sg8
F-0.02779843471944332
sg9
F-0.04003456421196461
sg10
F-0.19383260364293164
sg11
F4.423095166683197
sg12
F-1.9984787702560425
ssg15
(dp46
g7
F-0.08047964051365852
sg8
F-0.25886404514312744
sg9
F-0.07632225379347801
sg10
F-0.42500959550670814
sg11
F8.76783275604248
sg12
F-3.9283509254455566
ssg17
(dp47
g7
F-0.043418668559752405
sg8
F-0.18562090396881104
sg9
F-0.0770641122944653
sg10
F-0.2895229821424792
sg11
F9.696595191955566
sg12
F-2.493943691253662
ssg19
(dp48
g7
F-0.16761323518585414
sg8
F-0.7208394017070532
sg9
F-0.21081193361897022
sg10
F-1.0494802451571914
sg11
F25.916066110134125
sg12
F-9.848599791526794
sssS'FPP'
p49
(dp50
g5
(dp51
g7
F-0.017292918055318296
sg8
F0.022514708340168
sg9
F-0.017401976710971212
sg10
F-0.09429690591059625
sg11
F2.064612627029419
sg12
F-0.712286651134491
ssg13
(dp52
g7
F-0.01671574114880059
sg8
F0.0
sg9
F-0.018873111170250922
sg10
F-0.1347628033363435
sg11
F2.3176093101501465
sg12
F-1.2484062910079956
ssg15
(dp53
g7
F-0.015322579740313813
sg8
F-0.11017565429210663
sg9
F-0.024129365338012576
sg10
F-0.10521577904000878
sg11
F1.7754907608032227
sg12
F-1.1723569631576538
ssg17
(dp54
g7
F-0.012883914518170059
sg8
F-0.05669499188661575
sg9
F-0.027505395701155066
sg10
F-0.06916757370345294
sg11
F1.2465596199035645
sg12
F-0.7303579449653625
ssg19
(dp55
g7
F-0.06221515346260276
sg8
F-0.14435593783855438
sg9
F-0.08790984892038978
sg10
F-0.4034430619904015
sg11
F7.4042723178863525
sg12
F-3.863407850265503
sssS'FFF'
p56
(dp57
g5
(dp58
g7
F-4.460511604520434e-08
sg8
F0.0008719497709535062
sg9
F9.24551859498024e-05
sg10
F-8.692278197486303e-05
sg11
F0.01606842689216137
sg12
F-0.0010341433808207512
ssg13
(dp59
g7
F-0.0001042943340507918
sg8
F-2.486983476046589e-06
sg9
F0.0
sg10
F-0.0005091636194265448
sg11
F0.0
sg12
F-0.0018651311984285712
ssg15
(dp60
g7
F0.0
sg8
F0.0
sg9
F0.0
sg10
F-0.002280943048390327
sg11
F0.0
sg12
F-0.004907903727144003
ssg17
(dp61
g7
F0.0
sg8
F-0.005777388345450163
sg9
F-0.00020141401910223067
sg10
F-0.00017945869058166863
sg11
F0.0
sg12
F-0.00141204206738621
ssg19
(dp62
g7
F-0.00010433893916683701
sg8
F-0.004907925557972703
sg9
F-0.00010895883315242827
sg10
F-0.0030564881403734034
sg11
F0.01606842689216137
sg12
F-0.009219220373779535
ssssS'controlComponentErrs'
p63
(dp64
g3
(dp65
g5
(dp66
g7
F0.00013794929641664237
sg8
F0.015048962354528534
sg9
F0.0005050741965827366
sg10
F0.0003651926276219621
sg11
F0.1304678170125551
sg12
F0.0035102364512712802
ssg13
(dp67
g7
F0.000502057317508242
sg8
F0.04515559268055823
sg9
F0.004916850172980481
sg10
F0.0015867203495703982
sg11
F0.3619144680812027
sg12
F0.00836829178684817
ssg15
(dp68
g7
F0.0008616679510659264
sg8
F0.07445981205029877
sg9
F0.002065552403020107
sg10
F0.0014183366142697786
sg11
F0.7265756336670115
sg12
F0.020216569602547196
ssg17
(dp69
g7
F9.24781728995963e-05
sg8
F0.02925280374201831
sg9
F0.001504510688545475
sg10
F0.00033265710891476266
sg11
F0.12232366870367428
sg12
F0.0046176842979371215
ssg19
(dp70
g7
F0.001010997244705651
sg8
F0.09308860808721633
sg9
F0.005564222740793327
sg10
F0.0021848081440941276
sg11
F0.831191412880491
sg12
F0.02263587334616702
sssg21
(dp71
g5
(dp72
g7
F0.002328668399262203
sg8
F0.06216779084738985
sg9
F0.006857096047275757
sg10
F0.003516281106028375
sg11
F1.2669899463293763
sg12
F0.035706470728033665
ssg13
(dp73
g7
F0.005862433745141498
sg8
F0.07024143228841578
sg9
F0.026866156217529902
sg10
F0.011547173213456198
sg11
F3.259659409551387
sg12
F0.11138353963698862
ssg15
(dp74
g7
F0.010484736899783595
sg8
F0.1365283556211774
sg9
F0.029608766123440905
sg10
F0.013717403469691589
sg11
F3.9675087340240163
sg12
F0.14173227870593924
ssg17
(dp75
g7
F0.0033888211957632747
sg8
F0.08961271775855349
sg9
F0.008441577769560872
sg10
F0.004287716003105479
sg11
F1.5648925473554705
sg12
F0.04949939364049532
ssg19
(dp76
g7
F0.012696639038912397
sg8
F0.1883324828633387
sg9
F0.04143367450152655
sg10
F0.018768407191654974
sg11
F5.515492473904951
sg12
F0.19031414490749574
sssg28
(dp77
g5
(dp78
g7
F0.0001757936985890418
sg8
F0.0070360299249495484
sg9
F0.001030910780249011
sg10
F0.0003750428376382012
sg11
F0.16540103178933688
sg12
F0.0036877543462994775
ssg13
(dp79
g7
F0.0014934558119417427
sg8
F0.0
sg9
F0.0036329749658389715
sg10
F0.0008631578259220144
sg11
F0.3865153702033505
sg12
F0.008580102853243758
ssg15
(dp80
g7
F0.0006573817420643041
sg8
F0.028252310397413428
sg9
F0.008693811376878404
sg10
F0.0025809275951563875
sg11
F0.7432752526489895
sg12
F0.03497615043384079
ssg17
(dp81
g7
F0.0003758952190140951
sg8
F0.0040088670323287145
sg9
F0.0010776159183642072
sg10
F0.0008407738276073767
sg11
F0.32772455986647153
sg12
F0.008366938305217562
ssg19
(dp82
g7
F0.001683675045002253
sg8
F0.029389960441951475
sg9
F0.009539648655139172
sg10
F0.002872940382803553
sg11
F0.914665578810366
sg12
F0.037155813177279146
sssg35
(dp83
g5
(dp84
g7
F0.00027797782056225
sg8
F0.0
sg9
F0.001267417525418139
sg10
F0.0006765281718479372
sg11
F0.1981128858346052
sg12
F0.006676143590383195
ssg13
(dp85
g7
F0.0006833505319345656
sg8
F0.0
sg9
F0.0016259260674505594
sg10
F0.000640904441006182
sg11
F0.22291103410028426
sg12
F0.0067461158042897975
ssg15
(dp86
g7
F0.0002007065124156459
sg8
F0.03461715730655113
sg9
F0.003513562296404844
sg10
F0.0015941620522046218
sg11
F0.8047155853674717
sg12
F0.013852859383563666
ssg17
(dp87
g7
F0.0015968496524898109
sg8
F0.0
sg9
F0.005280178204986914
sg10
F0.0009865088785737323
sg11
F0.33698048519963963
sg12
F0.010307473672573942
ssg19
(dp88
g7
F0.0017704382324731564
sg8
F0.03461715730655113
sg9
F0.006668986778191182
sg10
F0.0020935618658161053
sg11
F0.9219875624953249
sg12
F0.01970346919443112
sssg42
(dp89
g5
(dp90
g7
F0.0034615987930454476
sg8
F0.15270252012148802
sg9
F0.011651455624726324
sg10
F0.0055452304852546515
sg11
F0.7880760350237993
sg12
F0.06233678300877548
ssg13
(dp91
g7
F0.004667901280080502
sg8
F0.044937160671667226
sg9
F0.01285812933841857
sg10
F0.006951999276206677
sg11
F0.9454629480505223
sg12
F0.07584905819291865
ssg15
(dp92
g7
F0.013855085425373838
sg8
F0.16050947377253286
sg9
F0.033870304057021135
sg10
F0.016100612014905303
sg11
F2.325621920355318
sg12
F0.16622220019801914
ssg17
(dp93
g7
F0.009924830090153736
sg8
F0.12070386113174685
sg9
F0.021318676678288326
sg10
F0.012535678642602553
sg11
F2.585944446192008
sg12
F0.12921912412861142
ssg19
(dp94
g7
F0.01800659915218358
sg8
F0.25626182182200324
sg9
F0.043620767765903935
sg10
F0.02225876953823123
sg11
F3.6892533144721393
sg12
F0.23230659918278637
sssg49
(dp95
g5
(dp96
g7
F0.005014295467944126
sg8
F0.05847941995541481
sg9
F0.010532735914166428
sg10
F0.0057802467916519265
sg11
F0.8066604684560555
sg12
F0.05261750512664829
ssg13
(dp97
g7
F0.005409515848266399
sg8
F0.0
sg9
F0.012097305211519948
sg10
F0.007001092168313645
sg11
F0.9011478075420873
sg12
F0.07289379119642499
ssg15
(dp98
g7
F0.005329254866156034
sg8
F0.10392529169722489
sg9
F0.021059797697009802
sg10
F0.007793287949648082
sg11
F1.064542130299178
sg12
F0.09082605641217187
ssg17
(dp99
g7
F0.00507703955928365
sg8
F0.05668067498518981
sg9
F0.014612107689129093
sg10
F0.005998251099551306
sg11
F0.9238407435100057
sg12
F0.06993855207840126
ssg19
(dp100
g7
F0.010420331514278671
sg8
F0.13203411577865687
sg9
F0.030237593974652213
sg10
F0.013384352724021565
sg11
F1.8572830018493913
sg12
F0.14568074763314176
sssg56
(dp101
g5
(dp102
g7
F3.173475208094461e-08
sg8
F0.0008719497887647281
sg9
F7.612783593935047e-05
sg10
F2.4047549086028383e-05
sg11
F0.008582423849358443
sg12
F0.0002978655633090514
ssg13
(dp103
g7
F9.553396935841028e-05
sg8
F2.4869834589765824e-06
sg9
F0.0
sg10
F0.00028264978625727814
sg11
F0.0
sg12
F0.0012149217194554877
ssg15
(dp104
g7
F0.0
sg8
F0.0
sg9
F0.0
sg10
F0.0011161032146083496
sg11
F0.0
sg12
F0.0038561047783948984
ssg17
(dp105
g7
F0.0
sg8
F0.005777388408446179
sg9
F0.0002179166751070827
sg10
F8.532893429987733e-05
sg11
F0.0
sg12
F0.0006970537496328094
ssg19
(dp106
g7
F9.553397462928131e-05
sg8
F0.005842817765535894
sg9
F0.0002308313771880558
sg10
F0.001154745252848512
sg11
F0.008582423849358443
sg12
F0.004113415450698753
ssssS'controlYields'
p107
(dp108
g3
(dp109
g5
(dp110
S'datadriven'
p111
F0.0
sg7
F0.01204057034192374
sg8
F0.2603234052658081
sg9
F0.023629562463611364
sg10
F0.10959814861416817
sg11
F11.0
sg12
F0.8369353413581848
ssg13
(dp112
g111
F0.0
sg7
F0.005569410968746524
sg8
F0.2199256420135498
sg9
F0.005918487382587045
sg10
F0.027244824450463057
sg11
F2.0
sg12
F0.17929303646087646
ssg15
(dp113
g111
F0.0
sg7
F0.0043526453628146555
sg8
F0.35230520367622375
sg9
F0.016182491555809975
sg10
F0.014099070336669683
sg11
F1.0
sg12
F0.1661701500415802
ssg17
(dp114
g111
F0.0
sg7
F0.0033797055075410753
sg8
F0.2440873235464096
sg9
F0.05442369729280472
sg10
F0.04613934666849673
sg11
F4.0
sg12
F0.3831990957260132
ssg19
(dp115
g111
F0.0
sg7
F0.025342332181025995
sg8
F1.0766415745019913
sg9
F0.1001542386948131
sg10
F0.19708139006979764
sg11
F18.0
sg12
F1.5655976235866547
sssg21
(dp116
g5
(dp117
g111
F0.0
sg7
F0.1503627602942288
sg8
F1.3628714084625244
sg9
F0.29110871255397797
sg10
F1.1494373576567796
sg11
F96.0
sg12
F10.567610740661621
ssg13
(dp118
g111
F0.0
sg7
F0.04202230810187757
sg8
F0.010892990976572037
sg9
F0.1303090788424015
sg10
F0.30434865910189757
sg11
F23.0
sg12
F2.6771111488342285
ssg15
(dp119
g111
F0.0
sg7
F0.08246533898636699
sg8
F-0.2569050192832947
sg9
F0.19803893193602562
sg10
F0.4523396883159876
sg11
F33.0
sg12
F4.349523544311523
ssg17
(dp120
g111
F0.0
sg7
F0.24882106110453606
sg8
F2.9493398666381836
sg9
F0.28893865272402763
sg10
F1.7802062443042814
sg11
F174.0
sg12
F18.136018753051758
ssg19
(dp121
g111
F0.0
sg7
F0.5236714684870094
sg8
F4.066199246793985
sg9
F0.9083953760564327
sg10
F3.686331949378946
sg11
F326.0
sg12
F35.73026418685913
sssg28
(dp122
g5
(dp123
g111
F0.0
sg7
F0.03661650326102972
sg8
F0.12003728002309799
sg9
F0.022489083814434707
sg10
F0.25178168675483903
sg11
F39.0
sg12
F1.900848150253296
ssg13
(dp124
g111
F0.0
sg7
F0.011441208538599312
sg8
F0.0
sg9
F0.007770490366965532
sg10
F0.05432949820533395
sg11
F4.0
sg12
F0.4978063404560089
ssg15
(dp125
g111
F0.0
sg7
F0.002396655182117513
sg8
F0.11532837152481079
sg9
F0.03552368236705661
sg10
F0.05376685756345978
sg11
F4.0
sg12
F0.5072633624076843
ssg17
(dp126
g111
F0.0
sg7
F0.016343211173079908
sg8
F-0.10924354940652847
sg9
F0.0646307528950274
sg10
F0.1696101123798488
sg11
F25.0
sg12
F1.8028236627578735
ssg19
(dp127
g111
F0.0
sg7
F0.06679757815482645
sg8
F0.1261221021413803
sg9
F0.13041400944348425
sg10
F0.5294881549034816
sg11
F72.0
sg12
F4.708741515874863
sssg35
(dp128
g5
(dp129
g111
F0.0
sg7
F0.005036540659602906
sg8
F0.0
sg9
F-0.019253933802247047
sg10
F0.0724582786206156
sg11
F7.0
sg12
F0.7105358242988586
ssg13
(dp130
g111
F0.0
sg7
F0.01021058346668724
sg8
F0.0
sg9
F0.05224662646651268
sg10
F0.08928650291636586
sg11
F8.0
sg12
F0.8471061587333679
ssg15
(dp131
g111
F0.0
sg7
F0.0012917239655507728
sg8
F0.11965041607618332
sg9
F0.02330871461890638
sg10
F0.017488470184616745
sg11
F4.0
sg12
F0.14216101169586182
ssg17
(dp132
g111
F0.0
sg7
F-0.00021223805379122496
sg8
F0.0
sg9
F0.008538574911653996
sg10
F0.013050756475422531
sg11
F1.0
sg12
F0.0761733129620552
ssg19
(dp133
g111
F0.0
sg7
F0.016326610038049694
sg8
F0.11965041607618332
sg9
F0.064839982194826
sg10
F0.19228400819702074
sg11
F20.0
sg12
F1.7759763076901436
sssg42
(dp134
g5
(dp135
g111
F0.0
sg7
F0.09533986239694059
sg8
F0.6865536570549011
sg9
F0.08894868101924658
sg10
F0.6954530366056133
sg11
F16.0
sg12
F7.060733795166016
ssg13
(dp136
g111
F0.0
sg7
F0.11436834093183279
sg8
F0.05217995494604111
sg9
F0.1850802469998598
sg10
F0.9322178999682365
sg11
F24.0
sg12
F9.951146125793457
ssg15
(dp137
g111
F0.0
sg7
F0.1404360227752477
sg8
F0.5380300283432007
sg9
F0.15214266628026962
sg10
F0.7097980526450556
sg11
F15.0
sg12
F6.761046409606934
ssg17
(dp138
g111
F0.0
sg7
F0.07786775100976229
sg8
F0.40329062938690186
sg9
F0.14001941215246916
sg10
F0.4901267274484127
sg11
F15.0
sg12
F4.274507999420166
ssg19
(dp139
g111
F0.0
sg7
F0.42801197711378336
sg8
F1.6800542697310448
sg9
F0.5661910064518452
sg10
F2.827595716667318
sg11
F70.0
sg12
F28.047434329986572
sssS'PPP'
p140
(dp141
g5
(dp142
g111
F0.0
sg7
F0.6292059496045113
sg8
F1.3125697374343872
sg9
F0.5579237192869186
sg10
F3.8018090526165906
sg11
F49.0
sg12
F36.214046478271484
ssg13
(dp143
g111
F0.0
sg7
F0.6522124074399471
sg8
F1.0743070840835571
sg9
F0.9022277407348156
sg10
F5.051412254513707
sg11
F78.0
sg12
F50.834983825683594
ssg15
(dp144
g111
F0.0
sg7
F1.0994135793298483
sg8
F0.9483810663223267
sg9
F1.4120751023292542
sg10
F8.096049670159118
sg11
F108.0
sg12
F84.49372100830078
ssg17
(dp145
g111
F0.0
sg7
F0.7842075526714325
sg8
F1.0643675327301025
sg9
F0.9599904268980026
sg10
F6.078108806336786
sg11
F83.0
sg12
F56.644195556640625
ssg19
(dp146
g111
F0.0
sg7
F3.165039489045739
sg8
F4.3996254205703735
sg9
F3.832216989248991
sg10
F23.027379783626202
sg11
F318.0
sg12
F228.18694686889648
sssg49
(dp147
g5
(dp148
g111
F0.0
sg7
F0.04537625424563885
sg8
F-0.09397394210100174
sg9
F0.06433388873847434
sg10
F0.30036154482513666
sg11
F8.0
sg12
F2.4693305492401123
ssg13
(dp149
g111
F0.0
sg7
F0.06087394632049836
sg8
F0.0
sg9
F0.0647015180438757
sg10
F0.44376747765636537
sg11
F8.0
sg12
F4.35702657699585
ssg15
(dp150
g111
F0.0
sg7
F0.025772407127078623
sg8
F0.2573954463005066
sg9
F0.032796683721244335
sg10
F0.18388973735272884
sg11
F3.0
sg12
F2.0879852771759033
ssg17
(dp151
g111
F0.0
sg7
F0.026487075490877032
sg8
F0.13255108892917633
sg9
F0.053680977784097195
sg10
F0.12246287986636162
sg11
F2.0
sg12
F1.2750283479690552
ssg19
(dp152
g111
F0.0
sg7
F0.15850968318409286
sg8
F0.2959725931286812
sg9
F0.21551306828769157
sg10
F1.0504816397005925
sg11
F21.0
sg12
F10.18937075138092
sssg56
(dp153
g5
(dp154
g111
F0.0
sg7
F1.5264481135091046e-05
sg8
F-0.2443201243877411
sg9
F-0.010011464357376099
sg10
F0.01874307671096176
sg11
F5.0
sg12
F0.18211883306503296
ssg13
(dp155
g111
F0.0
sg7
F0.003918293383321725
sg8
F5.1103561418130994e-05
sg9
F0.002669523935765028
sg10
F0.006927022623131052
sg11
F0.0
sg12
F0.042769040912389755
ssg15
(dp156
g111
F0.0
sg7
F0.0
sg8
F0.0
sg9
F0.0
sg10
F0.0057837425847537816
sg11
F0.0
sg12
F0.02075895108282566
ssg17
(dp157
g111
F0.0
sg7
F3.330319304950535e-05
sg8
F0.1306375414133072
sg9
F0.009706055745482445
sg10
F0.005976082757115364
sg11
F0.0
sg12
F0.04575705528259277
ssg19
(dp158
g111
F0.0
sg7
F0.003966861057506321
sg8
F-0.11363147941301577
sg9
F0.002364115323871374
sg10
F0.037429924675961956
sg11
F5.0
sg12
F0.29140388034284115
ssssS'systs'
p159
(dp160
g5
(dp161
g111
F3.1772471697556184
sg7
F0.04762469766501923
sg8
F0.09934861065579181
sg9
F0.0958736352989534
sg10
F0.633078266267249
sg11
F0.0
sg12
F2.3675235821001146
ssg13
(dp162
g111
F4.432055416463254
sg7
F0.04936606009085823
sg8
F0.08131447280660133
sg9
F0.15503885277070442
sg10
F0.8411625276360722
sg11
F0.0
sg12
F3.3233795918165603
ssg15
(dp163
g111
F6.05607542520338
sg7
F0.08321478739562327
sg8
F0.07178311264097036
sg9
F0.24265104474940977
sg10
F1.3481563692080467
sg11
F0.0
sg12
F5.523847691159424
ssg17
(dp164
g111
F6.448445807310873
sg7
F0.05935679347291067
sg8
F0.08056214659539537
sg9
F0.16496479518121046
sg10
F1.0121283136645343
sg11
F0.0
sg12
F3.7031616682190274
ssg19
(dp165
g111
F10.392137300762478
sg7
F0.12309772333095062
sg8
F0.16770588734906067
sg9
F0.3454297511521723
sg10
F1.9875290710519655
sg11
F0.0
sg12
F7.802327824386579
sssS'yields'
p166
(dp167
g5
(dp168
g111
F10.590823899185395
sg7
F0.6292059496045113
sg8
F1.3125697374343872
sg9
F0.5579237192869186
sg10
F3.8018090526165906
sg11
F49.0
sg12
F36.214046478271484
ssg13
(dp169
g111
F14.773518054877513
sg7
F0.6522124074399471
sg8
F1.0743070840835571
sg9
F0.9022277407348156
sg10
F5.051412254513707
sg11
F78.0
sg12
F50.834983825683594
ssg15
(dp170
g111
F20.186918084011268
sg7
F1.0994135793298483
sg8
F0.9483810663223267
sg9
F1.4120751023292542
sg10
F8.096049670159118
sg11
F108.0
sg12
F84.49372100830078
ssg17
(dp171
g111
F21.49481935770291
sg7
F0.7842075526714325
sg8
F1.0643675327301025
sg9
F0.9599904268980026
sg10
F6.078108806336786
sg11
F83.0
sg12
F56.644195556640625
ssg19
(dp172
g111
F67.04607939577708
sg7
F3.165039489045739
sg8
F4.3996254205703735
sg9
F3.832216989248991
sg10
F23.027379783626202
sg11
F318.0
sg12
F228.18694686889648
sssS'errs'
p173
(dp174
g5
(dp175
g111
F1.7320583879944615
sg7
F0.045510937611594554
sg8
F0.5779308764865316
sg9
F0.09856024006035621
sg10
F0.05658755395846685
sg11
F6.999999999999999
sg12
F0.63004993434723
ssg13
(dp176
g111
F3.563069548870829
sg7
F0.04499997611624903
sg8
F0.4414828174209366
sg9
F0.12260671193178514
sg10
F0.07037653504277176
sg11
F8.831760866327848
sg12
F0.7719643901996054
ssg15
(dp177
g111
F4.912717428021679
sg7
F0.06130025760421736
sg8
F0.5089193558042394
sg9
F0.14113050582208606
sg10
F0.08810870103001892
sg11
F10.392304845413264
sg12
F0.9954460881745867
ssg17
(dp178
g111
F3.205850705311657
sg7
F0.05223649182589738
sg8
F0.5595608678243498
sg9
F0.1193973863700395
sg10
F0.07242686353285542
sg11
F9.1104335791443
sg12
F0.8037812486112947
ssg19
(dp179
g111
F7.078683644707379
sg7
F0.10287184237375108
sg8
F1.0492942635824138
sg9
F0.24273459225473643
sg10
F0.14547783922657428
sg11
F17.832554500127006
sg12
F1.6216871306107157
sssS'controlErrs'
p180
(dp181
g3
(dp182
g5
(dp183
g111
F0.0
sg7
F0.004840473886855525
sg8
F0.2535216334871636
sg9
F0.02404567661184702
sg10
F0.009839541503692545
sg11
F3.3166247903554
sg12
F0.09555738285549699
ssg13
(dp184
g111
F0.0
sg7
F0.004872695545785305
sg8
F0.21992564831405242
sg9
F0.014436972293392103
sg10
F0.004901234061102455
sg11
F1.4142135623730951
sg12
F0.04340669771425341
ssg15
(dp185
g111
F0.0
sg7
F0.0037920385810994773
sg8
F0.27519464951078576
sg9
F0.01381722815090193
sg10
F0.003503870437550496
sg11
F1.0
sg12
F0.0450333665415352
ssg17
(dp186
g111
F0.0
sg7
F0.0019332056310759518
sg8
F0.18037830034019844
sg9
F0.020925558259156044
sg10
F0.006276091845871698
sg11
F2.0
sg12
F0.0656910767353413
ssg19
(dp187
g111
F0.0
sg7
F0.008080234522822768
sg8
F0.47000950605848285
sg9
F0.037622008385426585
sg10
F0.013134120040016253
sg11
F4.242640687119285
sg12
F0.13175233010979867
sssg21
(dp188
g5
(dp189
g111
F0.0
sg7
F0.0228128699554047
sg8
F0.5970476353380968
sg9
F0.0629920850212695
sg10
F0.03135623874041629
sg11
F9.797958971132712
sg12
F0.34152985517224443
ssg13
(dp190
g111
F0.0
sg7
F0.010194629012707606
sg8
F0.1014071324873354
sg9
F0.03757091935007421
sg10
F0.016939217429319506
sg11
F4.795831523312719
sg12
F0.1706810704959793
ssg15
(dp191
g111
F0.0
sg7
F0.017292967312640302
sg8
F0.2563357267541944
sg9
F0.050554013151357324
sg10
F0.02048538828521709
sg11
F5.7445626465380295
sg12
F0.22236535722103984
ssg17
(dp192
g111
F0.0
sg7
F0.03032504300772206
sg8
F1.0081480209338747
sg9
F0.07906763611381178
sg10
F0.039547544629928606
sg11
F13.19090595827292
sg12
F0.4664642027008896
ssg19
(dp193
g111
F0.0
sg7
F0.0429303208490827
sg8
F1.203669274471026
sg9
F0.11910909319808621
sg10
F0.05704217925812486
sg11
F18.05547008526779
sg12
F0.6425028204553229
sssg28
(dp194
g5
(dp195
g111
F0.0
sg7
F0.010608285618036745
sg8
F0.13278212330373093
sg9
F0.025254501679304306
sg10
F0.01480869452515942
sg11
F6.244997998398398
sg12
F0.14231983379904695
ssg13
(dp196
g111
F0.0
sg7
F0.006337123173035899
sg8
F0.0
sg9
F0.020673233928708352
sg10
F0.006849822934102132
sg11
F2.0
sg12
F0.07105150617578121
ssg15
(dp197
g111
F0.0
sg7
F0.001591739070063767
sg8
F0.11344225403643761
sg9
F0.019872264559187662
sg10
F0.006918391943103291
sg11
F2.0
sg12
F0.07660643077104498
ssg17
(dp198
g111
F0.0
sg7
F0.006789496022765409
sg8
F0.1161892493784756
sg9
F0.026470624994824814
sg10
F0.011876795394139937
sg11
F5.0
sg12
F0.14238493808176766
ssg19
(dp199
g111
F0.0
sg7
F0.01418893031114004
sg8
F0.2097621961675851
sg9
F0.046484119250213535
sg10
F0.021334008617245336
sg11
F8.48528137423857
sg12
F0.2268154920865485
sssg35
(dp200
g5
(dp201
g111
F0.0
sg7
F0.005192087572911478
sg8
F0.0
sg9
F0.018436067613966045
sg10
F0.008053302979251413
sg11
F2.6457513110645907
sg12
F0.09131382887073924
ssg13
(dp202
g111
F0.0
sg7
F0.007778279341828612
sg8
F0.0
sg9
F0.026042385492940894
sg10
F0.009395844489614884
sg11
F2.8284271247461903
sg12
F0.10154548890081153
ssg15
(dp203
g111
F0.0
sg7
F0.0008961825157948336
sg8
F0.11950580713485597
sg9
F0.013590892694499462
sg10
F0.00401349900635108
sg11
F2.0
sg12
F0.04007148443685172
ssg17
(dp204
g111
F0.0
sg7
F0.007138244416186227
sg8
F0.0
sg9
F0.017346656901860723
sg10
F0.0032281734491245656
sg11
F1.0
sg12
F0.02963615600931183
ssg19
(dp205
g111
F0.0
sg7
F0.011799028745245507
sg8
F0.11950580713485597
sg9
F0.03877774234188908
sg10
F0.013403986744258588
sg11
F4.47213595499958
sg12
F0.14537443814894216
sssg42
(dp206
g5
(dp207
g111
F0.0
sg7
F0.017271499969056008
sg8
F0.39227921492579265
sg9
F0.047686019042146525
sg10
F0.024509789879144154
sg11
F4.0
sg12
F0.27594537299473754
ssg13
(dp208
g111
F0.0
sg7
F0.019882032167346204
sg8
F0.14433729025357248
sg9
F0.0562496617309376
sg10
F0.029650649495140756
sg11
F4.898979485566356
sg12
F0.3363421537535566
ssg15
(dp209
g111
F0.0
sg7
F0.02280348214664927
sg8
F0.3345728998767593
sg9
F0.0596912301827354
sg10
F0.02590815499457849
sg11
F3.872983346207417
sg12
F0.27703581372863456
ssg17
(dp210
g111
F0.0
sg7
F0.01743172446586858
sg8
F0.27162879252421257
sg9
F0.03529257390629122
sg10
F0.020401526305699327
sg11
F3.872983346207417
sg12
F0.215564691229851
ssg19
(dp211
g111
F0.0
sg7
F0.038954636824786386
sg8
F0.6003644410528042
sg9
F0.10122543944380877
sg10
F0.050668980513019324
sg11
F8.366600265340756
sg12
F0.5590070406194305
sssg140
(dp212
g5
(dp213
g111
F0.0
sg7
F0.045510937611594554
sg8
F0.5779308764865316
sg9
F0.09856024006035621
sg10
F0.05658755395846685
sg11
F6.999999999999999
sg12
F0.63004993434723
ssg13
(dp214
g111
F0.0
sg7
F0.04499997611624903
sg8
F0.4414828174209366
sg9
F0.12260671193178514
sg10
F0.07037653504277176
sg11
F8.831760866327848
sg12
F0.7719643901996054
ssg15
(dp215
g111
F0.0
sg7
F0.06130025760421736
sg8
F0.5089193558042394
sg9
F0.14113050582208606
sg10
F0.08810870103001892
sg11
F10.392304845413264
sg12
F0.9954460881745867
ssg17
(dp216
g111
F0.0
sg7
F0.05223649182589738
sg8
F0.5595608678243498
sg9
F0.1193973863700395
sg10
F0.07242686353285542
sg11
F9.1104335791443
sg12
F0.8037812486112947
ssg19
(dp217
g111
F0.0
sg7
F0.10287184237375108
sg8
F1.0492942635824138
sg9
F0.24273459225473643
sg10
F0.14547783922657428
sg11
F17.832554500127006
sg12
F1.6216871306107157
sssg49
(dp218
g5
(dp219
g111
F0.0
sg7
F0.012893000482050844
sg8
F0.24408674877418626
sg9
F0.03391793081465316
sg10
F0.015864360023448928
sg11
F2.8284271247461903
sg12
F0.16369041483567157
ssg13
(dp220
g111
F0.0
sg7
F0.017932519573558323
sg8
F0.0
sg9
F0.03704436376848377
sg10
F0.02039241990361719
sg11
F2.8284271247461903
sg12
F0.22065845257697092
ssg15
(dp221
g111
F0.0
sg7
F0.010106243597434809
sg8
F0.24300232845686717
sg9
F0.038574197007830754
sg10
F0.013130555066638716
sg11
F1.7320508075688772
sg12
F0.15400501817680845
ssg17
(dp222
g111
F0.0
sg7
F0.009783681090360489
sg8
F0.13253359710730797
sg9
F0.0287018699903091
sg10
F0.01002366208118353
sg11
F1.4142135623730951
sg12
F0.11824901961775369
ssg19
(dp223
g111
F0.0
sg7
F0.026185135000889058
sg8
F0.36904420727714193
sg9
F0.06953040294359653
sg10
F0.030666170063358665
sg11
F4.582575694955841
sg12
F0.336429904834479
sssg56
(dp224
g5
(dp225
g111
F0.0
sg7
F1.0813670380213762e-05
sg8
F0.24432012588264823
sg9
F0.009549641231268712
sg10
F0.0039051899362082193
sg11
F2.23606797749979
sg12
F0.04324848160609988
ssg13
(dp226
g111
F0.0
sg7
F0.003543451751974473
sg8
F5.1103562030736724e-05
sg9
F0.0026695238256363844
sg10
F0.002643094551976549
sg11
F0.0
sg12
F0.022025202919734022
ssg15
(dp227
g111
F0.0
sg7
F0.0
sg8
F0.0
sg9
F0.0
sg10
F0.002293587715013694
sg11
F0.0
sg12
F0.01362513649425781
ssg17
(dp228
g111
F0.0
sg7
F3.330319251435178e-05
sg8
F0.13063753729419006
sg9
F0.009427101593780912
sg10
F0.00237154529190524
sg11
F0.0
sg12
F0.021289410332783493
ssg19
(dp229
g111
F0.0
sg7
F0.0035436247482866614
sg8
F0.2770532307575171
sg9
F0.013681821865565064
sg10
F0.0057551045973613475
sg11
F2.23606797749979
sg12
F0.05472133095688923
ssss.