(dp0
S'controlComponentYields'
p1
(dp2
S'FPF'
p3
(dp4
S'eee'
p5
(dp6
S'VVV'
p7
F0.0003252448213970638
sS'ZG'
p8
F0.015149288810789585
sS'TTV'
p9
F0.0008057608829403762
sS'ZZ'
p10
F0.00306220815400593
sS'data'
p11
F-0.38949474692344666
sS'WZ'
p12
F0.024052519351243973
ssS'eem'
p13
(dp14
g7
F0.0006095897679188056
sg8
F0.045155592262744904
sg9
F0.0032059971417766064
sg10
F0.006716068921377882
sg11
F-0.5033571720123291
sg12
F0.029282541945576668
ssS'mmm'
p15
(dp16
g7
F0.0009829052587519982
sg8
F0.09812634438276291
sg9
F0.0008355246391147375
sg10
F0.004684639556217007
sg11
F-0.7265756130218506
sg12
F0.07237901538610458
ssS'mme'
p17
(dp18
g7
F0.0001729385712678777
sg8
F0.003649855265393853
sg9
F0.003558800555765629
sg10
F0.002249629396828823
sg11
F-0.22242778539657593
sg12
F0.022605711594223976
ssS'wz'
p19
(dp20
g7
F0.0020906784193357453
sg8
F0.16208108072169125
sg9
F0.008406083219597349
sg10
F0.016712546028429642
sg11
F-1.8418553173542023
sg12
F0.1483197882771492
sssS'PPF'
p21
(dp22
g5
(dp23
g7
F-0.014399266510736197
sg8
F-0.12857955694198608
sg9
F-0.027717998018488288
sg10
F-0.11161028156830355
sg11
F11.013927459716797
sg12
F-0.9957062005996704
ssg13
(dp24
g7
F-0.023676318814978004
sg8
F0.02360673062503338
sg9
F-0.08940654853358865
sg10
F-0.19461116237783038
sg11
F15.224560737609863
sg12
F-1.6826274394989014
ssg15
(dp25
g7
F-0.04249985655769706
sg8
F0.007956642657518387
sg9
F-0.1229815250262618
sg10
F-0.28454157907973077
sg11
F22.12915462255478
sg12
F-2.6333632469177246
ssg17
(dp26
g7
F-0.02535149536561221
sg8
F-0.24423448741436005
sg9
F-0.028618865180760622
sg10
F-0.16851945616195962
sg11
F18.562074452638626
sg12
F-1.728341817855835
ssg19
(dp27
g7
F-0.10592693724902347
sg8
F-0.34125067107379436
sg9
F-0.26872493675909936
sg10
F-0.7592824791878243
sg11
F66.92971727252007
sg12
F-7.040038704872131
sssS'PFF'
p28
(dp29
g5
(dp30
g7
F0.0006287054457061458
sg8
F0.006713290698826313
sg9
F0.0011116244459117297
sg10
F0.004785407701717759
sg11
F-0.8696860074996948
sg12
F0.04024408012628555
ssg13
(dp31
g7
F0.002145952188584488
sg8
F0.0
sg9
F0.0023588465992361307
sg10
F0.006372422445565462
sg11
F-0.6543291807174683
sg12
F0.05887888744473457
ssg15
(dp32
g7
F0.0008780603515186058
sg8
F0.029033711180090904
sg9
F0.013047295855358243
sg10
F0.018265434789100254
sg11
F-1.47024405002594
sg12
F0.21206389367580414
ssg17
(dp33
g7
F0.0005868290463695303
sg8
F-0.003728247247636318
sg9
F0.0027044661983381957
sg10
F0.009647535081112765
sg11
F-1.4375789985060692
sg12
F0.09472861886024475
ssg19
(dp34
g7
F0.00423954703217877
sg8
F0.0320187546312809
sg9
F0.0192222330988443
sg10
F0.03907080001749624
sg11
F-4.431838236749172
sg12
F0.405915480107069
sssS'FFP'
p35
(dp36
g5
(dp37
g7
F7.28288827351875e-05
sg8
F0.0
sg9
F-0.001012527267448604
sg10
F0.004318760053138249
sg11
F-0.44380271434783936
sg12
F0.03955383971333504
ssg13
(dp38
g7
F4.8717080517235445e-05
sg8
F0.0
sg9
F0.0031529914122074842
sg10
F0.004735668175271712
sg11
F-0.5483260154724121
sg12
F0.04627386853098869
ssg15
(dp39
g7
F0.0004168973246123642
sg8
F0.03497806563973427
sg9
F0.0060252080438658595
sg10
F0.006723421800415963
sg11
F-1.5993937253952026
sg12
F0.043300967663526535
ssg17
(dp40
g7
F-8.993977098725736e-05
sg8
F0.0
sg9
F0.0006826276076026261
sg10
F0.004346069370512851
sg11
F-0.3369804918766022
sg12
F0.026058712974190712
ssg19
(dp41
g7
F0.00044850351687752976
sg8
F0.03497806563973427
sg9
F0.008848299796227366
sg10
F0.020123919399338774
sg11
F-2.9285029470920563
sg12
F0.15518738888204098
sssS'PFP'
p42
(dp43
g5
(dp44
g7
F-0.018563329591415823
sg8
F-0.2485560178756714
sg9
F-0.01734940300229937
sg10
F-0.13383710530433746
sg11
F3.028542995452881
sg12
F-1.4065929651260376
ssg13
(dp45
g7
F-0.025400059879757464
sg8
F-0.02779843471944332
sg9
F-0.03949322225525975
sg10
F-0.1891917757561714
sg11
F4.423095166683197
sg12
F-1.9806934595108032
ssg15
(dp46
g7
F-0.08343542437069118
sg8
F-0.21942153573036194
sg9
F-0.07807057537138462
sg10
F-0.41646241799753625
sg11
F8.76783275604248
sg12
F-3.9225471019744873
ssg17
(dp47
g7
F-0.04144188843201846
sg8
F-0.18562090396881104
sg9
F-0.07361851679161191
sg10
F-0.27674887758443134
sg11
F9.696595191955566
sg12
F-2.469799041748047
ssg19
(dp48
g7
F-0.16884070227388293
sg8
F-0.6813968922942877
sg9
F-0.20853171742055565
sg10
F-1.0162401766424765
sg11
F25.916066110134125
sg12
F-9.779632568359375
sssS'FPP'
p49
(dp50
g5
(dp51
g7
F-0.017292918055318296
sg8
F0.022514708340168
sg9
F-0.017395267463143682
sg10
F-0.08880089013837278
sg11
F2.064612627029419
sg12
F-0.7127153277397156
ssg13
(dp52
g7
F-0.016715740217478015
sg8
F0.0
sg9
F-0.018876560789067298
sg10
F-0.1313768096770218
sg11
F2.3176093101501465
sg12
F-1.2394663095474243
ssg15
(dp53
g7
F-0.021827298973221332
sg8
F-0.10427350550889969
sg9
F-0.017431713407859206
sg10
F-0.09943002928048372
sg11
F1.7754907608032227
sg12
F-1.1935055255889893
ssg17
(dp54
g7
F-0.012883723713457584
sg8
F-0.05669499188661575
sg9
F-0.027509194565936923
sg10
F-0.0690272655338049
sg11
F1.2465596199035645
sg12
F-0.7231534719467163
ssg19
(dp55
g7
F-0.06871968095947523
sg8
F-0.13845378905534744
sg9
F-0.08121273622600711
sg10
F-0.3886349946296832
sg11
F7.4042723178863525
sg12
F-3.8688406348228455
sssS'FFF'
p56
(dp57
g5
(dp58
g7
F-4.460511604520434e-08
sg8
F0.0008719497709535062
sg9
F9.24551859498024e-05
sg10
F-8.658970045871683e-05
sg11
F0.01606842689216137
sg12
F-0.0010341433808207512
ssg13
(dp59
g7
F-0.0001042943340507918
sg8
F-2.486983476046589e-06
sg9
F0.0
sg10
F-0.0004820321501028957
sg11
F0.0
sg12
F-0.0018651311984285712
ssg15
(dp60
g7
F0.0
sg8
F0.0
sg9
F0.0
sg10
F-0.0022678138338960707
sg11
F0.0
sg12
F-0.004907902795821428
ssg17
(dp61
g7
F0.0
sg8
F-0.005777388345450163
sg9
F-0.00020103648421354592
sg10
F-0.00017406452025170438
sg11
F0.0
sg12
F-0.00141204206738621
ssg19
(dp62
g7
F-0.00010433893916683701
sg8
F-0.004907925557972703
sg9
F-0.00010858129826374352
sg10
F-0.0030105002047093876
sg11
F0.01606842689216137
sg12
F-0.00921921944245696
ssssS'controlComponentErrs'
p63
(dp64
g3
(dp65
g5
(dp66
g7
F0.00013794929641664237
sg8
F0.015048962354528534
sg9
F0.0005050741965827366
sg10
F0.0003630990789500066
sg11
F0.1304678170125551
sg12
F0.0035102364512712802
ssg13
(dp67
g7
F0.000502057317508242
sg8
F0.04515559268055823
sg9
F0.004916850172980481
sg10
F0.0015882888869145177
sg11
F0.3619144680812027
sg12
F0.00836829178684817
ssg15
(dp68
g7
F0.0008616679514129934
sg8
F0.07445981205029877
sg9
F0.002065552403020107
sg10
F0.0012649102455996998
sg11
F0.7265756336670115
sg12
F0.020441570506987968
ssg17
(dp69
g7
F9.247809667977653e-05
sg8
F0.0034451449189918603
sg9
F0.0015045104325587162
sg10
F0.0003321894628855065
sg11
F0.12232366870367428
sg12
F0.0046443479292950845
ssg19
(dp70
g7
F0.0010109972380294603
sg8
F0.08843998785820345
sg9
F0.005564222671577049
sg10
F0.0020892224147049917
sg11
F0.831191412880491
sg12
F0.02284245695747662
sssg21
(dp71
g5
(dp72
g7
F0.0022975345991765985
sg8
F0.06216779084738985
sg9
F0.006857095956886878
sg10
F0.0034698318694891253
sg11
F1.2669899463293763
sg12
F0.035255833106179885
ssg13
(dp73
g7
F0.005881063068651915
sg8
F0.07062896834566164
sg9
F0.02686517611194041
sg10
F0.011352548689511325
sg11
F3.259659409551387
sg12
F0.11065194903646697
ssg15
(dp74
g7
F0.009545023351263292
sg8
F0.005360506270864731
sg9
F0.029331744034799146
sg10
F0.013569965110247504
sg11
F3.9675087340240163
sg12
F0.13970126233718005
ssg17
(dp75
g7
F0.003365764764822569
sg8
F0.08961172728880011
sg9
F0.00813863612322792
sg10
F0.0042251516994904455
sg11
F1.5648925473554705
sg12
F0.049325050929377126
ssg19
(dp76
g7
F0.011929015520157467
sg8
F0.1300472302034132
sg9
F0.04117458024748782
sg10
F0.0185179900347551
sg11
F5.515492473904951
sg12
F0.1882451352395778
sssg28
(dp77
g5
(dp78
g7
F0.00017579368526400316
sg8
F0.0070360299249495484
sg9
F0.0010309110571319953
sg10
F0.00035720911888589005
sg11
F0.16540103178933688
sg12
F0.0036877543058154464
ssg13
(dp79
g7
F0.0014934558119417427
sg8
F0.0
sg9
F0.0036326556674310187
sg10
F0.0008882613895798402
sg11
F0.3865153702033505
sg12
F0.008582569919483531
ssg15
(dp80
g7
F0.0006573817420643041
sg8
F0.028252310397413428
sg9
F0.008693965705256528
sg10
F0.0025778652385647803
sg11
F0.7432752526489895
sg12
F0.034976114830972765
ssg17
(dp81
g7
F0.000250093674680826
sg8
F0.004008866078348847
sg9
F0.0011143788915668903
sg10
F0.0008186167409493717
sg11
F0.32772455986647153
sg12
F0.008354060083453116
ssg19
(dp82
g7
F0.0016601238757743735
sg8
F0.029389960311826155
sg9
F0.009543890443837995
sg10
F0.0028691687311130317
sg11
F0.914665578810366
sg12
F0.037153451613413005
sssg35
(dp83
g5
(dp84
g7
F0.00027797782056225
sg8
F0.0
sg9
F0.001267417525418139
sg10
F0.0006747963472166073
sg11
F0.1981128858346052
sg12
F0.0066484433593262384
ssg13
(dp85
g7
F0.0006833505324759774
sg8
F0.0
sg9
F0.0016259260674505594
sg10
F0.0006373027175082895
sg11
F0.22291103410028426
sg12
F0.006701478216343216
ssg15
(dp86
g7
F0.0005871876688863599
sg8
F0.034618639435154225
sg9
F0.003513562296404844
sg10
F0.0016464407434215226
sg11
F0.8047155853674717
sg12
F0.013245172606199085
ssg17
(dp87
g7
F0.0015968496524898109
sg8
F0.0
sg9
F0.005280178205012042
sg10
F0.0010252096242119172
sg11
F0.33698048519963963
sg12
F0.010307473672573942
ssg19
(dp88
g7
F0.0018544427168582932
sg8
F0.034618639435154225
sg9
F0.006668986778211076
sg10
F0.002150192260970047
sg11
F0.9219875624953249
sg12
F0.019255913903658363
sssg42
(dp89
g5
(dp90
g7
F0.0034386031942000932
sg8
F0.15270252012148802
sg9
F0.011651415796748174
sg10
F0.005254520571430463
sg11
F0.7880760350237993
sg12
F0.06203110821616479
ssg13
(dp91
g7
F0.004790482614182776
sg8
F0.044937160671667226
sg9
F0.012867742231797482
sg10
F0.006852619061985844
sg11
F0.9454629480505223
sg12
F0.07561987634151283
ssg15
(dp92
g7
F0.01392214615974359
sg8
F0.15514441231385123
sg9
F0.03442079969151995
sg10
F0.01593408155936378
sg11
F2.325621920355318
sg12
F0.1659018239581798
ssg17
(dp93
g7
F0.009708853235356944
sg8
F0.12070386113174685
sg9
F0.02104018670113599
sg10
F0.012124219901411363
sg11
F2.585944446192008
sg12
F0.12868025926651047
ssg19
(dp94
g7
F0.01796832492034009
sg8
F0.25293599748752055
sg9
F0.04391827851857466
sg10
F0.021805046154560505
sg11
F3.6892533144721393
sg12
F0.23162091529475154
sssg49
(dp95
g5
(dp96
g7
F0.005014295467944126
sg8
F0.05847941995541481
sg9
F0.010532733776386402
sg10
F0.005557100374464582
sg11
F0.8066604684560555
sg12
F0.052719724876867505
ssg13
(dp97
g7
F0.0054095157795195905
sg8
F0.0
sg9
F0.01209730570310763
sg10
F0.006899805842289818
sg11
F0.9011478075420873
sg12
F0.07276627882451173
ssg15
(dp98
g7
F0.006934796203941396
sg8
F0.10375755791567288
sg9
F0.019878059726688303
sg10
F0.007511712776001161
sg11
F1.064542130299178
sg12
F0.09238761947833773
ssg17
(dp99
g7
F0.005077039516815682
sg8
F0.05668067498518981
sg9
F0.014612107964108811
sg10
F0.006091063306485186
sg11
F0.9238407435100057
sg12
F0.06954231415250213
ssg19
(dp100
g7
F0.011325800133068942
sg8
F0.13190213152077074
sg9
F0.02942676067342838
sg10
F0.013115470493501955
sg11
F1.8572830018493913
sg12
F0.14644420922528353
sssg56
(dp101
g5
(dp102
g7
F3.173475208094461e-08
sg8
F0.0008719497887647281
sg9
F7.612783593935047e-05
sg10
F2.404701717080542e-05
sg11
F0.008582423849358443
sg12
F0.0002978655633090514
ssg13
(dp103
g7
F9.553396935841028e-05
sg8
F2.4869834589765824e-06
sg9
F0.0
sg10
F0.00028150599549794686
sg11
F0.0
sg12
F0.0012149217194554877
ssg15
(dp104
g7
F0.0
sg8
F0.0
sg9
F0.0
sg10
F0.001115867760150766
sg11
F0.0
sg12
F0.003856104620826508
ssg17
(dp105
g7
F0.0
sg8
F0.005777388408446179
sg9
F0.0002179170021342698
sg10
F8.527276457897804e-05
sg11
F0.0
sg12
F0.0006970537496328094
ssg19
(dp106
g7
F9.553397462928131e-05
sg8
F0.005842817765535894
sg9
F0.0002308316859185411
sg10
F0.0011542340261224899
sg11
F0.008582423849358443
sg12
F0.004113415302986899
ssssS'controlYields'
p107
(dp108
g3
(dp109
g5
(dp110
S'datadriven'
p111
F0.0
sg7
F0.01204057034192374
sg8
F0.2603234052658081
sg9
F0.023629562463611364
sg10
F0.10615397151559591
sg11
F11.0
sg12
F0.8369353413581848
ssg13
(dp112
g111
F0.0
sg7
F0.005569410968746524
sg8
F0.2199256420135498
sg9
F0.005918487382587045
sg10
F0.02783906745025888
sg11
F2.0
sg12
F0.17929303646087646
ssg15
(dp113
g111
F0.0
sg7
F0.004352645548351575
sg8
F0.35230520367622375
sg9
F0.016182491555809975
sg10
F0.012355134589597583
sg11
F1.0
sg12
F0.17267289757728577
ssg17
(dp114
g111
F0.0
sg7
F0.003379697125637904
sg8
F0.08070361614227295
sg9
F0.054458096623420715
sg10
F0.04564491915516555
sg11
F4.0
sg12
F0.39883410930633545
ssg19
(dp115
g111
F0.0
sg7
F0.025342323984659743
sg8
F0.9132578670978546
sg9
F0.1001886380254291
sg10
F0.19199309271061793
sg11
F18.0
sg12
F1.5877353847026825
sssg21
(dp116
g5
(dp117
g111
F0.0
sg7
F0.1538867554627359
sg8
F1.3628714084625244
sg9
F0.2910892218351364
sg10
F1.1213415535019067
sg11
F96.0
sg12
F10.42983341217041
ssg13
(dp118
g111
F0.0
sg7
F0.042607879266142845
sg8
F-0.0025938730686903
sg9
F0.1308099962770939
sg10
F0.2965563138537348
sg11
F23.0
sg12
F2.6682896614074707
ssg15
(dp119
g111
F0.0
sg7
F0.07490945421159267
sg8
F-0.014424913562834263
sg9
F0.20784622803330421
sg10
F0.43793850730880646
sg11
F33.0
sg12
F4.24491024017334
ssg17
(dp120
g111
F0.0
sg7
F0.24570434726774693
sg8
F2.942960739135742
sg9
F0.2871091738343239
sg10
F1.7266945253031736
sg11
F174.0
sg12
F17.993242263793945
ssg19
(dp121
g111
F0.0
sg7
F0.5171084362082183
sg8
F4.288813360966742
sg9
F0.9168546199798584
sg10
F3.5825308999676215
sg11
F326.0
sg12
F35.336275577545166
sssg28
(dp122
g5
(dp123
g111
F0.0
sg7
F0.03662335406988859
sg8
F0.12003728002309799
sg9
F0.02242501254659146
sg10
F0.24406998007179936
sg11
F39.0
sg12
F1.900794267654419
ssg13
(dp124
g111
F0.0
sg7
F0.011441208538599312
sg8
F0.0
sg9
F0.007248010486364365
sg10
F0.05495923478156328
sg11
F4.0
sg12
F0.4997963607311249
ssg15
(dp125
g111
F0.0
sg7
F0.002396655182117513
sg8
F0.11532837152481079
sg9
F0.0357535514049232
sg10
F0.05325348066253355
sg11
F4.0
sg12
F0.5070434212684631
ssg17
(dp126
g111
F0.0
sg7
F0.011631751665845513
sg8
F-0.10924352705478668
sg9
F0.06718730786815286
sg10
F0.16548376291578992
sg11
F25.0
sg12
F1.8039543628692627
ssg19
(dp127
g111
F0.0
sg7
F0.06209296945645093
sg8
F0.1261221244931221
sg9
F0.13261388230603188
sg10
F0.5177664584316861
sg11
F72.0
sg12
F4.71158841252327
sssg35
(dp128
g5
(dp129
g111
F0.0
sg7
F0.005036540659602906
sg8
F0.0
sg9
F-0.019253933802247047
sg10
F0.07000767532736063
sg11
F7.0
sg12
F0.6916592121124268
ssg13
(dp130
g111
F0.0
sg7
F0.01021058346668724
sg8
F0.0
sg9
F0.05224662646651268
sg10
F0.0870764444116503
sg11
F8.0
sg12
F0.8301054239273071
ssg15
(dp131
g111
F0.0
sg7
F0.0007619546086061746
sg8
F0.12125015258789062
sg9
F0.0233084240462631
sg10
F0.01737799309194088
sg11
F4.0
sg12
F0.1314176768064499
ssg17
(dp132
g111
F0.0
sg7
F-0.00021223805379122496
sg8
F0.0
sg9
F-0.0019314649980515242
sg10
F0.013491069956216961
sg11
F1.0
sg12
F0.0761733129620552
ssg19
(dp133
g111
F0.0
sg7
F0.015796840681105095
sg8
F0.12125015258789062
sg9
F0.05436965171247721
sg10
F0.18795318278716877
sg11
F20.0
sg12
F1.729355625808239
sssg42
(dp134
g5
(dp135
g111
F0.0
sg7
F0.09287388413213193
sg8
F0.6865536570549011
sg9
F0.08877503778785467
sg10
F0.6695784610055853
sg11
F16.0
sg12
F6.94139289855957
ssg13
(dp136
g111
F0.0
sg7
F0.1184108667075634
sg8
F0.05217995494604111
sg9
F0.18237954564392567
sg10
F0.9151007498403487
sg11
F24.0
sg12
F9.847823143005371
ssg15
(dp137
g111
F0.0
sg7
F0.1448423967231065
sg8
F0.4634597897529602
sg9
F0.15626410581171513
sg10
F0.6965022047806997
sg11
F15.0
sg12
F6.754141807556152
ssg17
(dp138
g111
F0.0
sg7
F0.07495689019560814
sg8
F0.40329062938690186
sg9
F0.1316744415089488
sg10
F0.470349473228751
sg11
F15.0
sg12
F4.227938175201416
ssg19
(dp139
g111
F0.0
sg7
F0.43108403775841
sg8
F1.6054840311408043
sg9
F0.5590931307524443
sg10
F2.7515308888553847
sg11
F70.0
sg12
F27.77129602432251
sssS'PPP'
p140
(dp141
g5
(dp142
g111
F0.0
sg7
F0.621821841225028
sg8
F1.2434524297714233
sg9
F0.5579234808683395
sg10
F3.6648743549885694
sg11
F49.0
sg12
F35.89892578125
ssg13
(dp143
g111
F0.0
sg7
F0.6712512411177158
sg8
F0.8944718837738037
sg9
F0.8866284303367138
sg10
F4.993671253265347
sg11
F78.0
sg12
F50.28533935546875
ssg15
(dp144
g111
F0.0
sg7
F1.0740357600152493
sg8
F0.7099905014038086
sg9
F1.4521073549985886
sg10
F7.946224126411835
sg11
F108.0
sg12
F83.85078430175781
ssg17
(dp145
g111
F0.0
sg7
F0.7885153442621231
sg8
F0.877004086971283
sg9
F0.9564220607280731
sg10
F5.8611639332220875
sg11
F83.0
sg12
F55.80670928955078
ssg19
(dp146
g111
F0.0
sg7
F3.1556241866201162
sg8
F3.7249189019203186
sg9
F3.853081326931715
sg10
F22.46593366788784
sg11
F318.0
sg12
F225.84175872802734
sssg49
(dp147
g5
(dp148
g111
F0.0
sg7
F0.04537625424563885
sg8
F-0.09397394210100174
sg9
F0.06430069640191505
sg10
F0.28354613576084375
sg11
F8.0
sg12
F2.4590392112731934
ssg13
(dp149
g111
F0.0
sg7
F0.060873942595208064
sg8
F0.0
sg9
F0.06470690481364727
sg10
F0.4314539626793703
sg11
F8.0
sg12
F4.31752872467041
ssg15
(dp150
g111
F0.0
sg7
F0.03691516153048724
sg8
F0.24359475076198578
sg9
F0.0249021602794528
sg10
F0.1750006265938282
sg11
F3.0
sg12
F2.112581729888916
ssg17
(dp151
g111
F0.0
sg7
F0.026486713555641472
sg8
F0.13255108892917633
sg9
F0.05368986073881388
sg10
F0.12124507734552026
sg11
F2.0
sg12
F1.2631828784942627
ssg19
(dp152
g111
F0.0
sg7
F0.16965207192697562
sg8
F0.28217189759016037
sg9
F0.207599622233829
sg10
F1.0112458023795625
sg11
F21.0
sg12
F10.152332544326782
sssg56
(dp153
g5
(dp154
g111
F0.0
sg7
F1.5264481135091046e-05
sg8
F-0.2443201243877411
sg9
F-0.010011464357376099
sg10
F0.01709586870856583
sg11
F5.0
sg12
F0.18211883306503296
ssg13
(dp155
g111
F0.0
sg7
F0.003918293383321725
sg8
F5.1103561418130994e-05
sg9
F0.002669523935765028
sg10
F0.0067870234488509595
sg11
F0.0
sg12
F0.042769040912389755
ssg15
(dp156
g111
F0.0
sg7
F0.0
sg8
F0.0
sg9
F0.0
sg10
F0.005752663884777576
sg11
F0.0
sg12
F0.020758945494890213
ssg17
(dp157
g111
F0.0
sg7
F0.0
sg8
F0.1306375414133072
sg9
F0.009671454317867756
sg10
F0.00581075219088234
sg11
F0.0
sg12
F0.04575705528259277
ssg19
(dp158
g111
F0.0
sg7
F0.003933557864456816
sg8
F-0.11363147941301577
sg9
F0.0023295138962566853
sg10
F0.035446308233076707
sg11
F5.0
sg12
F0.2914038747549057
ssssS'systs'
p159
(dp160
g5
(dp161
g111
F3.1929655959617675
sg7
F0.0470657933359682
sg8
F0.09411711072649559
sg9
F0.09587359432909479
sg10
F0.6102758635777943
sg11
F0.0
sg12
F2.346922302929232
ssg13
(dp162
g111
F4.449003252451393
sg7
F0.05080711241779227
sg8
F0.06770271810265507
sg9
F0.1523582666182923
sg10
F0.8315474805737565
sg11
F0.0
sg12
F3.287446124790572
ssg15
(dp163
g111
F6.053697203605043
sg7
F0.08129393624503428
sg8
F0.053739293145026804
sg9
F0.249530188725437
sg10
F1.323207379354704
sg11
F0.0
sg12
F5.481815166143155
ssg17
(dp164
g111
F6.460889087694824
sg7
F0.05968285089852704
sg8
F0.0663805778048449
sg9
F0.16435160698905724
sg10
F0.9760025950273776
sg11
F0.0
sg12
F3.6484103029384345
ssg19
(dp165
g111
F10.410523371749766
sg7
F0.12234091031280485
sg8
F0.1439999350952048
sg9
F0.34882883094971984
sg10
F1.9409705501096877
sg11
F0.0
sg12
F7.725059324932827
sssS'yields'
p166
(dp167
g5
(dp168
g111
F10.643218653205892
sg7
F0.621821841225028
sg8
F1.2434524297714233
sg9
F0.5579234808683395
sg10
F3.6648743549885694
sg11
F49.0
sg12
F35.89892578125
ssg13
(dp169
g111
F14.830010841504645
sg7
F0.6712512411177158
sg8
F0.8944718837738037
sg9
F0.8866284303367138
sg10
F4.993671253265347
sg11
F78.0
sg12
F50.28533935546875
ssg15
(dp170
g111
F20.178990678683476
sg7
F1.0740357600152493
sg8
F0.7099905014038086
sg9
F1.4521073549985886
sg10
F7.946224126411835
sg11
F108.0
sg12
F83.85078430175781
ssg17
(dp171
g111
F21.536296958982746
sg7
F0.7885153442621231
sg8
F0.877004086971283
sg9
F0.9564220607280731
sg10
F5.8611639332220875
sg11
F83.0
sg12
F55.80670928955078
ssg19
(dp172
g111
F67.18851713237676
sg7
F3.1556241866201162
sg8
F3.7249189019203186
sg9
F3.853081326931715
sg10
F22.46593366788784
sg11
F318.0
sg12
F225.84175872802734
sssS'errs'
p173
(dp174
g5
(dp175
g111
F1.7320393612368692
sg7
F0.045260293354398684
sg8
F0.5737829723761486
sg9
F0.09856024006071515
sg10
F0.05555340798617835
sg11
F6.999999999999999
sg12
F0.627154831401388
ssg13
(dp176
g111
F3.5630460698049435
sg7
F0.04578888445752975
sg8
F0.4031952271513939
sg9
F0.12209980463863773
sg10
F0.07001157438058482
sg11
F8.831760866327848
sg12
F0.7678172065390859
ssg15
(dp177
g111
F4.910602388024438
sg7
F0.06049093856723519
sg8
F0.4549056237912932
sg9
F0.1418522816566159
sg10
F0.08739531332856713
sg11
F10.392304845413264
sg12
F0.9921480757797675
ssg17
(dp178
g111
F3.2056812913160635
sg7
F0.0525081029191354
sg8
F0.5272601587109834
sg9
F0.11782237076993603
sg10
F0.07101819459058156
sg11
F9.1104335791443
sg12
F0.7977895916492577
ssg19
(dp179
g111
F7.077122720370999
sg7
F0.10276852930397891
sg8
F0.9882993939628564
sg9
F0.24212943662152164
sg10
F0.14376830819353437
sg11
F17.832554500127006
sg12
F1.6135961334934381
sssS'controlErrs'
p180
(dp181
g3
(dp182
g5
(dp183
g111
F0.0
sg7
F0.004840473886855525
sg8
F0.2535216334871636
sg9
F0.02404567661184702
sg10
F0.009705374626381807
sg11
F3.3166247903554
sg12
F0.09555738285549699
ssg13
(dp184
g111
F0.0
sg7
F0.004872695545785305
sg8
F0.21992564831405242
sg9
F0.014436972293392103
sg10
F0.004949121495721507
sg11
F1.4142135623730951
sg12
F0.04340669771425341
ssg15
(dp185
g111
F0.0
sg7
F0.003792038583456938
sg8
F0.27519464951078576
sg9
F0.01381722815090193
sg10
F0.0033007957251723276
sg11
F1.0
sg12
F0.04554608768725551
ssg17
(dp186
g111
F0.0
sg7
F0.0019332000292919679
sg8
F0.07643359479253214
sg9
F0.02092552998219179
sg10
F0.006268699502094518
sg11
F2.0
sg12
F0.06755798050059184
ssg19
(dp187
g111
F0.0
sg7
F0.008080233183697532
sg8
F0.4406979679606308
sg9
F0.0376219926576382
sg10
F0.012995381721392583
sg11
F4.242640687119285
sg12
F0.1328679105637705
sssg21
(dp188
g5
(dp189
g111
F0.0
sg7
F0.02252669175569769
sg8
F0.5970476353380968
sg9
F0.06299208320229872
sg10
F0.03100004220831283
sg11
F9.797958971132712
sg12
F0.3390862231785752
ssg13
(dp190
g111
F0.0
sg7
F0.010211600419632264
sg8
F0.10242445239530422
sg9
F0.03756708737416874
sg10
F0.016685100899963824
sg11
F4.795831523312719
sg12
F0.17019819171584943
ssg15
(dp191
g111
F0.0
sg7
F0.01647984882965891
sg8
F0.009807947181427457
sg9
F0.04965336680441235
sg10
F0.020132572804656867
sg11
F5.7445626465380295
sg12
F0.21937413395285027
ssg17
(dp192
g111
F0.0
sg7
F0.030225422356710784
sg8
F1.008127805928572
sg9
F0.07763472324484227
sg10
F0.03891166022392692
sg11
F13.19090595827292
sg12
F0.46468244479537124
ssg19
(dp193
g111
F0.0
sg7
F0.042389741667960355
sg8
F1.176169424966302
sg9
F0.1177790120873007
sg10
F0.05620349631540992
sg11
F18.05547008526779
sg12
F0.6387500891283083
sssg28
(dp194
g5
(dp195
g111
F0.0
sg7
F0.010608283405904575
sg8
F0.13278212330373093
sg9
F0.025254582954126137
sg10
F0.014599444395415833
sg11
F6.244997998398398
sg12
F0.14231982378219257
ssg13
(dp196
g111
F0.0
sg7
F0.006337123173035899
sg8
F0.0
sg9
F0.020666630487615998
sg10
F0.0068914818588800015
sg11
F2.0
sg12
F0.0710793691029292
ssg15
(dp197
g111
F0.0
sg7
F0.001591739070063767
sg8
F0.11344225403643761
sg9
F0.019873572556294048
sg10
F0.006984076433564781
sg11
F2.0
sg12
F0.0766062195643191
ssg17
(dp198
g111
F0.0
sg7
F0.004957497572228796
sg8
F0.11618922171820115
sg9
F0.02659379565039512
sg10
F0.011786225608249686
sg11
F5.0
sg12
F0.1426872537561193
ssg19
(dp199
g111
F0.0
sg7
F0.013409146966755223
sg8
F0.2097621808463007
sg9
F0.04655204001054901
sg10
F0.02117377473632292
sg11
F8.48528137423857
sg12
F0.22701403968447553
sssg35
(dp200
g5
(dp201
g111
F0.0
sg7
F0.005192087572911478
sg8
F0.0
sg9
F0.018436067613966045
sg10
F0.00793441899365585
sg11
F2.6457513110645907
sg12
F0.09001097314304896
ssg13
(dp202
g111
F0.0
sg7
F0.007778279388751989
sg8
F0.0
sg9
F0.026042385492940894
sg10
F0.009262528783292324
sg11
F2.8284271247461903
sg12
F0.10027945896181752
ssg15
(dp203
g111
F0.0
sg7
F0.0020288483399973326
sg8
F0.11951651386271891
sg9
F0.013590892691396423
sg10
F0.004011132229707416
sg11
F2.0
sg12
F0.03834163562414222
ssg17
(dp204
g111
F0.0
sg7
F0.007138244416186227
sg8
F0.0
sg9
F0.01383057401899047
sg10
F0.0032806205075403593
sg11
F1.0
sg12
F0.02963615600931183
ssg19
(dp205
g111
F0.0
sg7
F0.011938599689502517
sg8
F0.11951651386271891
sg9
F0.03733753571238323
sg10
F0.013251456407010418
sg11
F4.47213595499958
sg12
F0.14320030705685058
sssg42
(dp206
g5
(dp207
g111
F0.0
sg7
F0.017158830166860758
sg8
F0.39227921492579265
sg9
F0.04768584950701786
sg10
F0.024031744999853312
sg11
F4.0
sg12
F0.2736419390747278
ssg13
(dp208
g111
F0.0
sg7
F0.020608587239674223
sg8
F0.14433729025357248
sg9
F0.05630464666039309
sg10
F0.02940515951073568
sg11
F4.898979485566356
sg12
F0.3345787226864633
ssg15
(dp209
g111
F0.0
sg7
F0.0228289926699673
sg8
F0.32540097036017895
sg9
F0.060995693882627544
sg10
F0.02567666066006527
sg11
F3.872983346207417
sg12
F0.276618040588238
ssg17
(dp210
g111
F0.0
sg7
F0.0170548973539227
sg8
F0.27162879252421257
sg9
F0.03429160029486935
sg10
F0.019873892005789585
sg11
F3.872983346207417
sg12
F0.2144144454109241
ssg19
(dp211
g111
F0.0
sg7
F0.0391301897617261
sg8
F0.5953017959489523
sg9
F0.10168845559729955
sg10
F0.04996449399022984
sg11
F8.366600265340756
sg12
F0.5561599835252736
sssg140
(dp212
g5
(dp213
g111
F0.0
sg7
F0.045260293354398684
sg8
F0.5737829723761486
sg9
F0.09856024006071515
sg10
F0.05555340798617835
sg11
F6.999999999999999
sg12
F0.627154831401388
ssg13
(dp214
g111
F0.0
sg7
F0.04578888445752975
sg8
F0.4031952271513939
sg9
F0.12209980463863773
sg10
F0.07001157438058482
sg11
F8.831760866327848
sg12
F0.7678172065390859
ssg15
(dp215
g111
F0.0
sg7
F0.06049093856723519
sg8
F0.4549056237912932
sg9
F0.1418522816566159
sg10
F0.08739531332856713
sg11
F10.392304845413264
sg12
F0.9921480757797675
ssg17
(dp216
g111
F0.0
sg7
F0.0525081029191354
sg8
F0.5272601587109834
sg9
F0.11782237076993603
sg10
F0.07101819459058156
sg11
F9.1104335791443
sg12
F0.7977895916492577
ssg19
(dp217
g111
F0.0
sg7
F0.10276852930397891
sg8
F0.9882993939628564
sg9
F0.24212943662152164
sg10
F0.14376830819353437
sg11
F17.832554500127006
sg12
F1.6135961334934381
sssg49
(dp218
g5
(dp219
g111
F0.0
sg7
F0.012893000482050844
sg8
F0.24408674877418626
sg9
F0.033917914575504124
sg10
F0.015373856123924633
sg11
F2.8284271247461903
sg12
F0.16332935413669405
ssg13
(dp220
g111
F0.0
sg7
F0.017932519212271666
sg8
F0.0
sg9
F0.03704436415901008
sg10
F0.020048000453422702
sg11
F2.8284271247461903
sg12
F0.2198718207958698
ssg15
(dp221
g111
F0.0
sg7
F0.012247529451756068
sg8
F0.2426101232795515
sg9
F0.03762513368891602
sg10
F0.012754844392886563
sg11
F1.7320508075688772
sg12
F0.15570478999532736
ssg17
(dp222
g111
F0.0
sg7
F0.009783680974437764
sg8
F0.13253359710730797
sg9
F0.028701870755703532
sg10
F0.01003506029478995
sg11
F1.4142135623730951
sg12
F0.11766805333089055
ssg19
(dp223
g111
F0.0
sg7
F0.027083705392908546
sg8
F0.36878607241471867
sg9
F0.06900839017889389
sg10
F0.030027758239775264
sg11
F4.582575694955841
sg12
F0.3363180754954616
sssg56
(dp224
g5
(dp225
g111
F0.0
sg7
F1.0813670380213762e-05
sg8
F0.24432012588264823
sg9
F0.009549641231268712
sg10
F0.003603491400543477
sg11
F2.23606797749979
sg12
F0.04324848160609988
ssg13
(dp226
g111
F0.0
sg7
F0.003543451751974473
sg8
F5.1103562030736724e-05
sg9
F0.0026695238256363844
sg10
F0.0026416514540128447
sg11
F0.0
sg12
F0.022025202919734022
ssg15
(dp227
g111
F0.0
sg7
F0.0
sg8
F0.0
sg9
F0.0
sg10
F0.0022930986734522913
sg11
F0.0
sg12
F0.013625133102226095
ssg17
(dp228
g111
F0.0
sg7
F0.0
sg8
F0.13063753729419006
sg9
F0.009427165093786454
sg10
F0.0023697478990869912
sg11
F0.0
sg12
F0.021289410332783493
ssg19
(dp229
g111
F0.0
sg7
F0.0035434682521560787
sg8
F0.2770532307575171
sg9
F0.013681865618660837
sg10
F0.0055531503950185645
sg11
F2.23606797749979
sg12
F0.054721330112302874
ssss.