(dp0
S'controlComponentYields'
p1
(dp2
S'FPF'
p3
(dp4
S'eee'
p5
(dp6
S'VVV'
p7
F0.0003252448213970638
sS'ZG'
p8
F0.015149288810789585
sS'TTV'
p9
F0.0008057608829403762
sS'ZZ'
p10
F0.003064114003791474
sS'data'
p11
F-0.38949474692344666
sS'WZ'
p12
F0.024052519351243973
ssS'eem'
p13
(dp14
g7
F0.0006095897679188056
sg8
F0.045155592262744904
sg9
F-0.0012690653384197503
sg10
F0.006996901734964922
sg11
F-0.5033571720123291
sg12
F0.029282541945576668
ssS'mmm'
p15
(dp16
g7
F0.0009829068549151998
sg8
F0.13492272794246674
sg9
F0.0008355246391147375
sg10
F0.00469625205732882
sg11
F-0.7265756130218506
sg12
F0.06961328536272049
ssS'mme'
p17
(dp18
g7
F0.00017293878227064852
sg8
F0.03269908204674721
sg9
F0.003560760524123907
sg10
F0.0022308281768346205
sg11
F-0.22242778539657593
sg12
F0.02246052399277687
ssS'wz'
p19
(dp20
g7
F0.0020906802265017177
sg8
F0.22792669106274843
sg9
F0.0039329807077592704
sg10
F0.016988095972919837
sg11
F-1.8418553173542023
sg12
F0.145408870652318
sssS'PPF'
p21
(dp22
g5
(dp23
g7
F-0.014399266510736197
sg8
F-0.1326352059841156
sg9
F-0.027717998018488288
sg10
F-0.11161298193810865
sg11
F11.013927459716797
sg12
F-0.9957062005996704
ssg13
(dp24
g7
F-0.02320332534145564
sg8
F0.01700744964182377
sg9
F-0.08921965816989541
sg10
F-0.19400310838812196
sg11
F15.224560737609863
sg12
F-1.6766858100891113
ssg15
(dp25
g7
F-0.0487519851885736
sg8
F0.006474392954260111
sg9
F-0.10241726692765951
sg10
F-0.29131174937347915
sg11
F22.12915462255478
sg12
F-2.6097631454467773
ssg17
(dp26
g7
F-0.025872545782476664
sg8
F-0.21314577758312225
sg9
F-0.03151151037309319
sg10
F-0.16964985153231282
sg11
F18.562074452638626
sg12
F-1.716612696647644
ssg19
(dp27
g7
F-0.1122271228232421
sg8
F-0.322299140971154
sg9
F-0.2508664334891364
sg10
F-0.7665776912320226
sg11
F66.92971727252007
sg12
F-6.998767852783203
sssS'PFF'
p28
(dp29
g5
(dp30
g7
F0.0006287054457061458
sg8
F0.006713290698826313
sg9
F0.0011116244459117297
sg10
F0.0047860290976018405
sg11
F-0.8696860074996948
sg12
F0.04024408012628555
ssg13
(dp31
g7
F0.002145952188584488
sg8
F0.0
sg9
F0.002407012041658163
sg10
F0.006238150046556257
sg11
F-0.6543291807174683
sg12
F0.059078410267829895
ssg15
(dp32
g7
F0.0008773236317063393
sg8
F0.029033711180090904
sg9
F0.01299492479301989
sg10
F0.018367824043707515
sg11
F-1.47024405002594
sg12
F0.2121216356754303
ssg17
(dp33
g7
F0.0008699170284671709
sg8
F-0.003728248178958893
sg9
F0.0024077116686385125
sg10
F0.009300747079633437
sg11
F-1.4375789985060692
sg12
F0.09535333514213562
ssg19
(dp34
g7
F0.004521898294464144
sg8
F0.032018753699958324
sg9
F0.018921272949228296
sg10
F0.03869275026749905
sg11
F-4.431838236749172
sg12
F0.40679746121168137
sssS'FFP'
p35
(dp36
g5
(dp37
g7
F7.28288827351875e-05
sg8
F0.0
sg9
F-0.001012527267448604
sg10
F0.004316413585911505
sg11
F-0.44380271434783936
sg12
F0.03955383971333504
ssg13
(dp38
g7
F4.8717080517235445e-05
sg8
F0.0
sg9
F0.0031529914122074842
sg10
F0.004755706395371817
sg11
F-0.5483260154724121
sg12
F0.04623570665717125
ssg15
(dp39
g7
F0.00033091862133005634
sg8
F0.03465772792696953
sg9
F0.005923334916587919
sg10
F0.006368213682435453
sg11
F-1.5993937253952026
sg12
F0.04686686024069786
ssg17
(dp40
g7
F-8.993977098725736e-05
sg8
F0.0
sg9
F0.0006826276076026261
sg10
F0.004374880008981563
sg11
F-0.3369804918766022
sg12
F0.026058712974190712
ssg19
(dp41
g7
F0.00036252481359522193
sg8
F0.03465772792696953
sg9
F0.008746426668949425
sg10
F0.019815213672700338
sg11
F-2.9285029470920563
sg12
F0.15871511958539486
sssS'PFP'
p42
(dp43
g5
(dp44
g7
F-0.01861701102461666
sg8
F-0.2485560178756714
sg9
F-0.01734940300229937
sg10
F-0.13379929733309837
sg11
F3.028542995452881
sg12
F-1.4065810441970825
ssg13
(dp45
g7
F-0.025038723659235984
sg8
F-0.02779843471944332
sg9
F-0.03962788172066212
sg10
F-0.19118030032723254
sg11
F4.423095166683197
sg12
F-1.976373553276062
ssg15
(dp46
g7
F-0.07894221576862037
sg8
F-0.21942153573036194
sg9
F-0.06756693869829178
sg10
F-0.4248852185992291
sg11
F8.76783275604248
sg12
F-3.959799289703369
ssg17
(dp47
g7
F-0.043755454127676785
sg8
F-0.08917450904846191
sg9
F-0.08499033795669675
sg10
F-0.27338319824597335
sg11
F9.696595191955566
sg12
F-2.5017077922821045
ssg19
(dp48
g7
F-0.1663534045801498
sg8
F-0.5849504973739386
sg9
F-0.20953456137795
sg10
F-1.0232480145055334
sg11
F25.916066110134125
sg12
F-9.844461679458618
sssS'FPP'
p49
(dp50
g5
(dp51
g7
F-0.017292918055318296
sg8
F0.022514708340168
sg9
F-0.017395267463143682
sg10
F-0.08880297443829477
sg11
F2.064612627029419
sg12
F-0.7127153277397156
ssg13
(dp52
g7
F-0.01671576024091337
sg8
F0.0
sg9
F-0.024135003855917603
sg10
F-0.13265382429744932
sg11
F2.3176093101501465
sg12
F-1.2432104349136353
ssg15
(dp53
g7
F-0.015322555758757517
sg8
F-0.11017565429210663
sg9
F-0.0286175690125674
sg10
F-0.10521369753405452
sg11
F1.7754907608032227
sg12
F-1.1747924089431763
ssg17
(dp54
g7
F-0.011077385453972965
sg8
F-0.05669499188661575
sg9
F-0.03126124828122556
sg10
F-0.06592802261002362
sg11
F1.2465596199035645
sg12
F-0.7463592886924744
ssg19
(dp55
g7
F-0.06040861950896215
sg8
F-0.14435593783855438
sg9
F-0.10140908861285425
sg10
F-0.3925985188798222
sg11
F7.4042723178863525
sg12
F-3.8770774602890015
sssS'FFF'
p56
(dp57
g5
(dp58
g7
F-4.460511604520434e-08
sg8
F0.0008719497709535062
sg9
F9.24551859498024e-05
sg10
F-8.659367131258477e-05
sg11
F0.01606842689216137
sg12
F-0.0010341433808207512
ssg13
(dp59
g7
F-0.0001042943340507918
sg8
F-2.486983476046589e-06
sg9
F0.0
sg10
F-0.00048200202854786767
sg11
F0.0
sg12
F-0.0018651311984285712
ssg15
(dp60
g7
F0.0
sg8
F0.0
sg9
F-0.0001758704165695235
sg10
F-0.002280945951497415
sg11
F0.0
sg12
F-0.004907903727144003
ssg17
(dp61
g7
F0.0
sg8
F-0.005777388345450163
sg9
F-0.00021818735694978386
sg10
F-0.00017869527073344216
sg11
F0.0
sg12
F-0.0011132336221635342
ssg19
(dp62
g7
F-0.00010433893916683701
sg8
F-0.004907925557972703
sg9
F-0.000301602587569505
sg10
F-0.0030282369220913097
sg11
F0.01606842689216137
sg12
F-0.00892041192855686
ssssS'controlComponentErrs'
p63
(dp64
g3
(dp65
g5
(dp66
g7
F0.00013794929641664237
sg8
F0.015048962354528534
sg9
F0.0005050741965827366
sg10
F0.0003631017065989446
sg11
F0.1304678170125551
sg12
F0.0035102364512712802
ssg13
(dp67
g7
F0.000502057317508242
sg8
F0.04515559268055823
sg9
F0.0020369666024809417
sg10
F0.0016260734179809255
sg11
F0.3619144680812027
sg12
F0.008368291786848205
ssg15
(dp68
g7
F0.0008616695620443196
sg8
F0.0830556304026933
sg9
F0.002065552403020107
sg10
F0.0012622947062610802
sg11
F0.7265756336670115
sg12
F0.020216618814781356
ssg17
(dp69
g7
F9.24781728995963e-05
sg8
F0.02925280374201831
sg9
F0.0015045133641918968
sg10
F0.00032948104142381323
sg11
F0.12232366870367428
sg12
F0.0046306130868294815
ssg19
(dp70
g7
F0.0010109986177349185
sg8
F0.10009726812774829
sg9
F0.0033067204412121996
sg10
F0.002116105690203517
sg11
F0.831191412880491
sg12
F0.0226385582852741
sssg21
(dp71
g5
(dp72
g7
F0.0022975345991765985
sg8
F0.06229994044123862
sg9
F0.006857095956886878
sg10
F0.0034698328023694933
sg11
F1.2669899463293763
sg12
F0.035255833106179885
ssg13
(dp73
g7
F0.005862430129172898
sg8
F0.07024143228841578
sg9
F0.02686617012343055
sg10
F0.011338167840361877
sg11
F3.259659409551387
sg12
F0.11083256369773604
ssg15
(dp74
g7
F0.01099126914016203
sg8
F0.005561663336053246
sg9
F0.029681814253445876
sg10
F0.013763429527172626
sg11
F3.9675087340240163
sg12
F0.1394295728242663
ssg17
(dp75
g7
F0.0033967503267528917
sg8
F0.08411858221154629
sg9
F0.008468269485918332
sg10
F0.0042333987338580405
sg11
F1.5648925473554705
sg12
F0.048983652176844764
ssg19
(dp76
g7
F0.01311459730024608
sg8
F0.1261824447427385
sg9
F0.04149135509386582
sg10
F0.01865334948050601
sg11
F5.515492473904951
sg12
F0.1880607213172464
sssg28
(dp77
g5
(dp78
g7
F0.00017579368526400316
sg8
F0.0070360299249495484
sg9
F0.0010309110571319953
sg10
F0.0003572094035114422
sg11
F0.16540103178933688
sg12
F0.0036877543058154464
ssg13
(dp79
g7
F0.0014934558119417427
sg8
F0.0
sg9
F0.0036329749658389715
sg10
F0.0008708575663248043
sg11
F0.3865153702033505
sg12
F0.008584888842816732
ssg15
(dp80
g7
F0.0006573813326126376
sg8
F0.028252310385487558
sg9
F0.008693804484435732
sg10
F0.0025646401464542944
sg11
F0.7432752526489895
sg12
F0.034976152209665774
ssg17
(dp81
g7
F0.000375915912611328
sg8
F0.0040088670323287145
sg9
F0.0010776929017012524
sg10
F0.000791597918035169
sg11
F0.32772455986647153
sg12
F0.008367905553633087
ssg19
(dp82
g7
F0.0016836795038911781
sg8
F0.02938996043048724
sg9
F0.009539651100229075
sg10
F0.0028442921445282093
sg11
F0.914665578810366
sg12
F0.03715713814345517
sssg35
(dp83
g5
(dp84
g7
F0.00027797782056225
sg8
F0.0
sg9
F0.001267417525418139
sg10
F0.0006747922672677867
sg11
F0.1981128858346052
sg12
F0.0066484433593262384
ssg13
(dp85
g7
F0.0006833505319354658
sg8
F0.0
sg9
F0.0016259260679676042
sg10
F0.0006401661595226532
sg11
F0.22291103410028426
sg12
F0.006700796611966685
ssg15
(dp86
g7
F0.0002007065124156459
sg8
F0.03461715730655113
sg9
F0.0035120854369257845
sg10
F0.0015515263470051535
sg11
F0.8047155853674717
sg12
F0.0141873942239061
ssg17
(dp87
g7
F0.0015968496524898109
sg8
F0.0
sg9
F0.005280178204986914
sg10
F0.001011594798958789
sg11
F0.33698048519963963
sg12
F0.010307473672573944
ssg19
(dp88
g7
F0.0017704382324735038
sg8
F0.03461715730655113
sg9
F0.00666820881158641
sg10
F0.0020726107590413622
sg11
F0.9219875624953249
sg12
F0.019915537720896277
sssg42
(dp89
g5
(dp90
g7
F0.0034390221898306554
sg8
F0.15270252012148802
sg9
F0.011651415796748174
sg10
F0.005254431740523558
sg11
F0.7880760350237993
sg12
F0.062031107074043274
ssg13
(dp91
g7
F0.004717349921411895
sg8
F0.044937160671667226
sg9
F0.012868250338025501
sg10
F0.006930287635769516
sg11
F0.9454629480505223
sg12
F0.07576267963720947
ssg15
(dp92
g7
F0.013685317933512913
sg8
F0.15514441237363275
sg9
F0.033299481763573995
sg10
F0.01605879529861048
sg11
F2.325621920355318
sg12
F0.16690941796000164
ssg17
(dp93
g7
F0.009930675600584742
sg8
F0.07257764274210608
sg9
F0.022068990136803027
sg10
F0.012040396938190192
sg11
F2.585944446192008
sg12
F0.1294754458435291
ssg19
(dp94
g7
F0.01788816672352345
sg8
F0.23382624099413069
sg9
F0.043557354926713726
sg10
F0.021874505811610354
sg11
F3.6892533144721393
sg12
F0.2328314556729159
sssg49
(dp95
g5
(dp96
g7
F0.005014295467944126
sg8
F0.05847941995541481
sg9
F0.010532733776386402
sg10
F0.005557097956023173
sg11
F0.8066604684560555
sg12
F0.052719724876867505
ssg13
(dp97
g7
F0.0054095137569712005
sg8
F0.0
sg9
F0.013313213737537305
sg10
F0.00694846417802241
sg11
F0.9011478075420873
sg12
F0.07320292960762438
ssg15
(dp98
g7
F0.005329254858893487
sg8
F0.10392529169722489
sg9
F0.020196277439018848
sg10
F0.007844162082018952
sg11
F1.064542130299178
sg12
F0.09085216937685096
ssg17
(dp99
g7
F0.004744836072006783
sg8
F0.05668067498518981
sg9
F0.015102670112861975
sg10
F0.005886191176591148
sg11
F0.9238407435100057
sg12
F0.07097446218099616
ssg19
(dp100
g7
F0.010262573986479331
sg8
F0.13203411577865687
sg9
F0.030400006706534442
sg10
F0.013241624426876823
sg11
F1.8572830018493913
sg12
F0.14638828251124844
sssg56
(dp101
g5
(dp102
g7
F3.173475208094461e-08
sg8
F0.0008719497887647281
sg9
F7.612783593935047e-05
sg10
F2.4047017498640688e-05
sg11
F0.008582423849358443
sg12
F0.0002978655633090514
ssg13
(dp103
g7
F9.553396935841028e-05
sg8
F2.4869834589765824e-06
sg9
F0.0
sg10
F0.00028150607871461783
sg11
F0.0
sg12
F0.0012149217194554877
ssg15
(dp104
g7
F0.0
sg8
F0.0
sg9
F0.00017587041050621966
sg10
F0.0011161028390387333
sg11
F0.0
sg12
F0.0038561047783948984
ssg17
(dp105
g7
F0.0
sg8
F0.005777388408446179
sg9
F0.00021774517175975262
sg10
F8.532490535862241e-05
sg11
F0.0
sg12
F0.0006297597959493157
ssg19
(dp106
g7
F9.553397462928131e-05
sg8
F0.005842817765535894
sg9
F0.00029006690352592634
sg10
F0.00115446516542884
sg11
F0.008582423849358443
sg12
F0.004102548005906109
ssssS'controlYields'
p107
(dp108
g3
(dp109
g5
(dp110
S'datadriven'
p111
F0.0
sg7
F0.01204057034192374
sg8
F0.2603234052658081
sg9
F0.023629562463611364
sg10
F0.10621075797826052
sg11
F11.0
sg12
F0.8369353413581848
ssg13
(dp112
g111
F0.0
sg7
F0.005569410968746524
sg8
F0.2199256420135498
sg9
F-0.0028720475384034216
sg10
F0.028361006756313145
sg11
F2.0
sg12
F0.17892439663410187
ssg15
(dp113
g111
F0.0
sg7
F0.004352652580564609
sg8
F0.4850066304206848
sg9
F0.016182491555809975
sg10
F0.01239541545510292
sg11
F1.0
sg12
F0.1662834733724594
ssg17
(dp114
g111
F0.0
sg7
F0.0033797055075410753
sg8
F0.2440873235464096
sg9
F0.0545349158346653
sg10
F0.04489347315393388
sg11
F4.0
sg12
F0.3941580057144165
ssg19
(dp115
g111
F0.0
sg7
F0.025342339398775948
sg8
F1.2093430012464523
sg9
F0.09147492231568322
sg10
F0.19186065334361047
sg11
F18.0
sg12
F1.5763012170791626
sssg21
(dp116
g5
(dp117
g111
F0.0
sg7
F0.1538867554627359
sg8
F1.4308573007583618
sg9
F0.2910892218351364
sg10
F1.1213598111496594
sg11
F96.0
sg12
F10.42983341217041
ssg13
(dp118
g111
F0.0
sg7
F0.043594313552603126
sg8
F0.010892990976572037
sg9
F0.13037298992276192
sg10
F0.29594242885338673
sg11
F23.0
sg12
F2.6402034759521484
ssg15
(dp119
g111
F0.0
sg7
F0.0800678925588727
sg8
F-0.012491375207901001
sg9
F0.16486338153481483
sg10
F0.4489002149902239
sg11
F33.0
sg12
F4.168159484863281
ssg17
(dp120
g111
F0.0
sg7
F0.24994831159710884
sg8
F2.647932529449463
sg9
F0.3089902028441429
sg10
F1.745425410419557
sg11
F174.0
sg12
F17.94773292541504
ssg19
(dp121
g111
F0.0
sg7
F0.5274972731713206
sg8
F4.077191445976496
sg9
F0.8953157961368561
sg10
F3.611627865412827
sg11
F326.0
sg12
F35.18592929840088
sssg28
(dp122
g5
(dp123
g111
F0.0
sg7
F0.03662335406988859
sg8
F0.12003728002309799
sg9
F0.02242501254659146
sg10
F0.2441080469507142
sg11
F39.0
sg12
F1.900794267654419
ssg13
(dp124
g111
F0.0
sg7
F0.011441208538599312
sg8
F0.0
sg9
F0.007770490366965532
sg10
F0.05546844517812133
sg11
F4.0
sg12
F0.5015552639961243
ssg15
(dp125
g111
F0.0
sg7
F0.002393369359658948
sg8
F0.11532837152481079
sg9
F0.035523667465895414
sg10
F0.05267423923214665
sg11
F4.0
sg12
F0.4929353892803192
ssg17
(dp126
g111
F0.0
sg7
F0.01644693431444466
sg8
F-0.10924354940652847
sg9
F0.0644028247334063
sg10
F0.16121634974665333
sg11
F25.0
sg12
F1.8088703155517578
ssg19
(dp127
g111
F0.0
sg7
F0.06690486628259151
sg8
F0.1261221021413803
sg9
F0.1301219951128587
sg10
F0.5134670811076355
sg11
F72.0
sg12
F4.70415523648262
sssg35
(dp128
g5
(dp129
g111
F0.0
sg7
F0.005036540659602906
sg8
F0.0
sg9
F-0.019253933802247047
sg10
F0.06993397418409586
sg11
F7.0
sg12
F0.6916592121124268
ssg13
(dp130
g111
F0.0
sg7
F0.01021058346668724
sg8
F0.0
sg9
F0.05224662646651268
sg10
F0.08767709461972117
sg11
F8.0
sg12
F0.8309539556503296
ssg15
(dp131
g111
F0.0
sg7
F0.0012917239655507728
sg8
F0.11965041607618332
sg9
F0.022751736571080983
sg10
F0.017038341844454408
sg11
F4.0
sg12
F0.13869915902614594
ssg17
(dp132
g111
F0.0
sg7
F-0.00021223805379122496
sg8
F0.0
sg9
F-0.0019314649980515242
sg10
F0.014129751070868224
sg11
F1.0
sg12
F0.0761733129620552
ssg19
(dp133
g111
F0.0
sg7
F0.016326610038049694
sg8
F0.11965041607618332
sg9
F0.05381296423729509
sg10
F0.18877916171913967
sg11
F20.0
sg12
F1.7374856397509575
sssg42
(dp134
g5
(dp135
g111
F0.0
sg7
F0.09314792393706739
sg8
F0.6865536570549011
sg9
F0.08877503778785467
sg10
F0.669329561322229
sg11
F16.0
sg12
F6.941340446472168
ssg13
(dp136
g111
F0.0
sg7
F0.11638185195624828
sg8
F0.05217995494604111
sg9
F0.1830067802220583
sg10
F0.9213227520485816
sg11
F24.0
sg12
F9.804832458496094
ssg15
(dp137
g111
F0.0
sg7
F0.13770000310614705
sg8
F0.4634598195552826
sg9
F0.13415827974677086
sg10
F0.7109512166207423
sg11
F15.0
sg12
F6.81225061416626
ssg17
(dp138
g111
F0.0
sg7
F0.07852568477392197
sg8
F0.168918177485466
sg9
F0.1585594965144992
sg10
F0.46653629869372537
sg11
F15.0
sg12
F4.278692245483398
ssg19
(dp139
g111
F0.0
sg7
F0.4257554637733847
sg8
F1.3711116090416908
sg9
F0.564499594271183
sg10
F2.7681398286852783
sg11
F70.0
sg12
F27.83711576461792
sssS'PPP'
p140
(dp141
g5
(dp142
g111
F0.0
sg7
F0.6265111174434423
sg8
F1.2434524297714233
sg9
F0.5579235404729843
sg10
F3.658295447618002
sg11
F49.0
sg12
F35.942596435546875
ssg13
(dp143
g111
F0.0
sg7
F0.6537418961524963
sg8
F1.0710508823394775
sg9
F0.8994934372603893
sg10
F4.977947125706123
sg11
F78.0
sg12
F50.413848876953125
ssg15
(dp144
g111
F0.0
sg7
F1.1192236207425594
sg8
F0.8379853963851929
sg9
F1.4046795517206192
sg10
F7.992617908894317
sg11
F108.0
sg12
F84.06143951416016
ssg17
(dp145
g111
F0.0
sg7
F0.7863905504345894
sg8
F0.877004086971283
sg9
F0.9895812124013901
sg10
F5.912094563797837
sg11
F83.0
sg12
F56.16884231567383
ssg19
(dp146
g111
F0.0
sg7
F3.1858671847730875
sg8
F4.029492795467377
sg9
F3.851677741855383
sg10
F22.54095504601628
sg11
F318.0
sg12
F226.58672714233398
sssg49
(dp147
g5
(dp148
g111
F0.0
sg7
F0.04537625424563885
sg8
F-0.09397394210100174
sg9
F0.06430069640191505
sg10
F0.2835448747500777
sg11
F8.0
sg12
F2.4590392112731934
ssg13
(dp149
g111
F0.0
sg7
F0.06087409067549743
sg8
F0.0
sg9
F0.07215275848284364
sg10
F0.4358605545858154
sg11
F8.0
sg12
F4.321287631988525
ssg15
(dp150
g111
F0.0
sg7
F0.025772350374609232
sg8
F0.2573954463005066
sg9
F0.04328763019293547
sg10
F0.18293809983879328
sg11
F3.0
sg12
F2.0837182998657227
ssg17
(dp151
g111
F0.0
sg7
F0.022263042745180428
sg8
F0.13255108892917633
sg9
F0.06489427294582129
sg10
F0.11574147455394268
sg11
F2.0
sg12
F1.2989521026611328
ssg19
(dp152
g111
F0.0
sg7
F0.15428573804092593
sg8
F0.2959725931286812
sg9
F0.24463535802351544
sg10
F1.018085003728629
sg11
F21.0
sg12
F10.162997245788574
sssg56
(dp153
g5
(dp154
g111
F0.0
sg7
F1.5264481135091046e-05
sg8
F-0.2443201243877411
sg9
F-0.010011464357376099
sg10
F0.017097083618864417
sg11
F5.0
sg12
F0.18211883306503296
ssg13
(dp155
g111
F0.0
sg7
F0.003918293383321725
sg8
F5.1103561418130994e-05
sg9
F0.002669523935765028
sg10
F0.006785626814235002
sg11
F0.0
sg12
F0.042769040912389755
ssg15
(dp156
g111
F0.0
sg7
F0.0
sg8
F0.0
sg9
F0.0011581371072679758
sg10
F0.005753802848630585
sg11
F0.0
sg12
F0.02075895108282566
ssg17
(dp157
g111
F0.0
sg7
F3.330319304950535e-05
sg8
F0.1306375414133072
sg9
F0.010410451330244541
sg10
F0.005962042981991544
sg11
F0.0
sg12
F0.03470674902200699
ssg19
(dp158
g111
F0.0
sg7
F0.003966861057506321
sg8
F-0.11363147941301577
sg9
F0.004226648015901446
sg10
F0.03559855626372155
sg11
F5.0
sg12
F0.28035357408225536
ssssS'systs'
p159
(dp160
g5
(dp161
g111
F3.191746328004855
sg7
F0.047420725393286026
sg8
F0.09411711072649559
sg9
F0.09587360457155944
sg10
F0.609180342152481
sg11
F0.0
sg12
F2.3497773084850357
ssg13
(dp162
g111
F4.445640449381744
sg7
F0.049481827332987775
sg8
F0.08106801038250064
sg9
F0.15456898994709323
sg10
F0.8289290946222297
sg11
F0.0
sg12
F3.29584754225772
ssg15
(dp163
g111
F6.065094491196214
sg7
F0.0847142125577739
sg8
F0.06342724695408691
sg9
F0.24138019302295252
sg10
F1.3309328844953094
sg11
F0.0
sg12
F5.495586926870145
ssg17
(dp164
g111
F6.490858572464594
sg7
F0.05952202491825715
sg8
F0.0663805778048449
sg9
F0.17004967700194978
sg10
F0.9844835773330518
sg11
F0.0
sg12
F3.6720850524508375
ssg19
(dp165
g111
F10.433962805300167
sg7
F0.12416338305913857
sg8
F0.1544650433100009
sg9
F0.34679188418859175
sg10
F1.9490547427524274
sg11
F0.0
sg12
F7.750467645535742
sssS'yields'
p166
(dp167
g5
(dp168
g111
F10.63915442668285
sg7
F0.6265111174434423
sg8
F1.2434524297714233
sg9
F0.5579235404729843
sg10
F3.658295447618002
sg11
F49.0
sg12
F35.942596435546875
ssg13
(dp169
g111
F14.818801497939148
sg7
F0.6537418961524963
sg8
F1.0710508823394775
sg9
F0.8994934372603893
sg10
F4.977947125706123
sg11
F78.0
sg12
F50.413848876953125
ssg15
(dp170
g111
F20.216981637320714
sg7
F1.1192236207425594
sg8
F0.8379853963851929
sg9
F1.4046795517206192
sg10
F7.992617908894317
sg11
F108.0
sg12
F84.06143951416016
ssg17
(dp171
g111
F21.63619524154865
sg7
F0.7863905504345894
sg8
F0.877004086971283
sg9
F0.9895812124013901
sg10
F5.912094563797837
sg11
F83.0
sg12
F56.16884231567383
ssg19
(dp172
g111
F67.31113280349136
sg7
F3.1858671847730875
sg8
F4.029492795467377
sg9
F3.851677741855383
sg10
F22.54095504601628
sg11
F318.0
sg12
F226.58672714233398
sssS'errs'
p173
(dp174
g5
(dp175
g111
F1.732044110008934
sg7
F0.045476388299289475
sg8
F0.5737829723761486
sg9
F0.09856024006072872
sg10
F0.05549233159306866
sg11
F6.999999999999999
sg12
F0.6275582862526045
ssg13
(dp176
g111
F3.5630576238027194
sg7
F0.04502795562121458
sg8
F0.44147093652246355
sg9
F0.12182544045480535
sg10
F0.06986239202665975
sg11
F8.831760866327848
sg12
F0.7688372736998609
ssg15
(dp177
g111
F4.910740904720343
sg7
F0.06214297643027118
sg8
F0.4733294118933127
sg9
F0.14081807042234762
sg10
F0.08753042646883163
sg11
F10.392304845413264
sg12
F0.9928766665297133
ssg17
(dp178
g111
F3.204280630864456
sg7
F0.05235766289829224
sg8
F0.527260159577317
sg9
F0.12022186838868591
sg10
F0.07133652610035543
sg11
F9.1104335791443
sg12
F0.8005081547594606
ssg19
(dp179
g111
F7.076591483488503
sg7
F0.10343448682116749
sg8
F1.0129992572670508
sg9
F0.24256666188735743
sg10
F0.1439118765050474
sg11
F17.832554500127006
sg12
F1.616031415799239
sssS'controlErrs'
p180
(dp181
g3
(dp182
g5
(dp183
g111
F0.0
sg7
F0.004840473886855525
sg8
F0.2535216334871636
sg9
F0.02404567661184702
sg10
F0.009705478457680057
sg11
F3.3166247903554
sg12
F0.09555738285549699
ssg13
(dp184
g111
F0.0
sg7
F0.004872695545785305
sg8
F0.21992564831405242
sg9
F0.01145219026888497
sg10
F0.005042257756836384
sg11
F1.4142135623730951
sg12
F0.04340513232188876
ssg15
(dp185
g111
F0.0
sg7
F0.003792045658987998
sg8
F0.3055188444123852
sg9
F0.01381722815090193
sg10
F0.003305813174835897
sg11
F1.0
sg12
F0.045033489140499955
ssg17
(dp186
g111
F0.0
sg7
F0.0019332056310759518
sg8
F0.18037830034019844
sg9
F0.020925853816031306
sg10
F0.0061144665158047165
sg11
F2.0
sg12
F0.06659891624887967
ssg19
(dp187
g111
F0.0
sg7
F0.008080237844464707
sg8
F0.4883836657353049
sg9
F0.03658079246517575
sg10
F0.01295900370007988
sg11
F4.242640687119285
sg12
F0.13220684445128217
sssg21
(dp188
g5
(dp189
g111
F0.0
sg7
F0.02252669175569769
sg8
F0.600905948298839
sg9
F0.06299208320229872
sg10
F0.031000049339163484
sg11
F9.797958971132712
sg12
F0.3390862231785752
ssg13
(dp190
g111
F0.0
sg7
F0.010317058433251002
sg8
F0.1014071324873354
sg9
F0.037570973716977665
sg10
F0.01668922936511626
sg11
F4.795831523312719
sg12
F0.16950489242205502
ssg15
(dp191
g111
F0.0
sg7
F0.017306073714747884
sg8
F0.009996720128107055
sg9
F0.050977523862018315
sg10
F0.020452767658204328
sg11
F5.7445626465380295
sg12
F0.2170962598760508
ssg17
(dp192
g111
F0.0
sg7
F0.030364982003888926
sg8
F0.9645606971684251
sg9
F0.0801482642369763
sg10
F0.03917113773900728
sg11
F13.19090595827292
sg12
F0.4639449296691177
ssg19
(dp193
g111
F0.0
sg7
F0.042841870357024796
sg8
F1.1409858185602435
sg9
F0.1200084697490555
sg10
F0.05649979798619459
sg11
F18.05547008526779
sg12
F0.6372496050390108
sssg28
(dp194
g5
(dp195
g111
F0.0
sg7
F0.010608283405904575
sg8
F0.13278212330373093
sg9
F0.025254582954126137
sg10
F0.01459946167835709
sg11
F6.244997998398398
sg12
F0.14231982378219257
ssg13
(dp196
g111
F0.0
sg7
F0.006337123173035899
sg8
F0.0
sg9
F0.020673233928708352
sg10
F0.0069707224803389235
sg11
F2.0
sg12
F0.07110112796032371
ssg15
(dp197
g111
F0.0
sg7
F0.0015917356972794399
sg8
F0.1134422540193295
sg9
F0.01987225884737116
sg10
F0.006819600235902358
sg11
F2.0
sg12
F0.07526172005272931
ssg17
(dp198
g111
F0.0
sg7
F0.006790124377725383
sg8
F0.1161892493784756
sg9
F0.026471606315864298
sg10
F0.01153401040170848
sg11
F5.0
sg12
F0.14252760720672236
ssg19
(dp199
g111
F0.0
sg7
F0.014189228961617088
sg8
F0.20976219615833278
sg9
F0.04648471978937772
sg10
F0.021006560797045257
sg11
F8.48528137423857
sg12
F0.22647019221079362
sssg35
(dp200
g5
(dp201
g111
F0.0
sg7
F0.005192087572911478
sg8
F0.0
sg9
F0.018436067613966045
sg10
F0.007934076681820166
sg11
F2.6457513110645907
sg12
F0.09001097314304896
ssg13
(dp202
g111
F0.0
sg7
F0.0077782793418582664
sg8
F0.0
sg9
F0.026042385524784648
sg10
F0.009359215109067594
sg11
F2.8284271247461903
sg12
F0.10028304888304253
ssg15
(dp203
g111
F0.0
sg7
F0.0008961825157948336
sg8
F0.11950580713485597
sg9
F0.01357947610615096
sg10
F0.003936360157275292
sg11
F2.0
sg12
F0.04028999748825618
ssg17
(dp204
g111
F0.0
sg7
F0.007138244416186227
sg8
F0.0
sg9
F0.013830574018703697
sg10
F0.0033769986535395324
sg11
F1.0
sg12
F0.02963615600931183
ssg19
(dp205
g111
F0.0
sg7
F0.011799028745265056
sg8
F0.11950580713485597
sg9
F0.03733338160269716
sg10
F0.013320793198777386
sg11
F4.47213595499958
sg12
F0.14373674137133255
sssg42
(dp206
g5
(dp207
g111
F0.0
sg7
F0.017161018256099496
sg8
F0.39227921492579265
sg9
F0.04768584950701786
sg10
F0.02403096488763704
sg11
F4.0
sg12
F0.2736419340285781
ssg13
(dp208
g111
F0.0
sg7
F0.02014693931161258
sg8
F0.14433729025357248
sg9
F0.05630685148007417
sg10
F0.02952191334964177
sg11
F4.898979485566356
sg12
F0.33397883361821135
ssg15
(dp209
g111
F0.0
sg7
F0.02243361967019316
sg8
F0.32540097046205824
sg9
F0.058380419583924086
sg10
F0.025897911823735856
sg11
F3.872983346207417
sg12
F0.2779643827214556
ssg17
(dp210
g111
F0.0
sg7
F0.01744444811137973
sg8
F0.13730172318533485
sg9
F0.03772998233892864
sg10
F0.019790799289283335
sg11
F3.872983346207417
sg12
F0.21577681520910658
ssg19
(dp211
g111
F0.0
sg7
F0.03883266373337629
sg8
F0.5472237116462076
sg9
F0.10137172547064581
sg10
F0.05011395229467834
sg11
F8.366600265340756
sg12
F0.5569969491903761
sssg140
(dp212
g5
(dp213
g111
F0.0
sg7
F0.045476388299289475
sg8
F0.5737829723761486
sg9
F0.09856024006072872
sg10
F0.05549233159306866
sg11
F6.999999999999999
sg12
F0.6275582862526045
ssg13
(dp214
g111
F0.0
sg7
F0.04502795562121458
sg8
F0.44147093652246355
sg9
F0.12182544045480535
sg10
F0.06986239202665975
sg11
F8.831760866327848
sg12
F0.7688372736998609
ssg15
(dp215
g111
F0.0
sg7
F0.06214297643027118
sg8
F0.4733294118933127
sg9
F0.14081807042234762
sg10
F0.08753042646883163
sg11
F10.392304845413264
sg12
F0.9928766665297133
ssg17
(dp216
g111
F0.0
sg7
F0.05235766289829224
sg8
F0.527260159577317
sg9
F0.12022186838868591
sg10
F0.07133652610035543
sg11
F9.1104335791443
sg12
F0.8005081547594606
ssg19
(dp217
g111
F0.0
sg7
F0.10343448682116749
sg8
F1.0129992572670508
sg9
F0.24256666188735743
sg10
F0.1439118765050474
sg11
F17.832554500127006
sg12
F1.616031415799239
sssg49
(dp218
g5
(dp219
g111
F0.0
sg7
F0.012893000482050844
sg8
F0.24408674877418626
sg9
F0.033917914575504124
sg10
F0.01537381715916183
sg11
F2.8284271247461903
sg12
F0.16332935413669405
ssg13
(dp220
g111
F0.0
sg7
F0.017932484073614783
sg8
F0.0
sg9
F0.038064099785066294
sg10
F0.020207092794675894
sg11
F2.8284271247461903
sg12
F0.21997076677328478
ssg15
(dp221
g111
F0.0
sg7
F0.01010624368063344
sg8
F0.24300232845686717
sg9
F0.035960946353783184
sg10
F0.013087297598396335
sg11
F1.7320508075688772
sg12
F0.15415363064141582
ssg17
(dp222
g111
F0.0
sg7
F0.008825021351190317
sg8
F0.13253359710730797
sg9
F0.029878684014712543
sg10
F0.009729895214256013
sg11
F1.4142135623730951
sg12
F0.11927503208412217
ssg19
(dp223
g111
F0.0
sg7
F0.025842225323333117
sg8
F0.36904420727714193
sg9
F0.06917532828045986
sg10
F0.030176631232882403
sg11
F4.582575694955841
sg12
F0.3362342803405609
sssg56
(dp224
g5
(dp225
g111
F0.0
sg7
F1.0813670380213762e-05
sg8
F0.24432012588264823
sg9
F0.009549641231268712
sg10
F0.0036034916053553625
sg11
F2.23606797749979
sg12
F0.04324848160609988
ssg13
(dp226
g111
F0.0
sg7
F0.003543451751974473
sg8
F5.1103562030736724e-05
sg9
F0.0026695238256363844
sg10
F0.0026416512265565488
sg11
F0.0
sg12
F0.022025202919734022
ssg15
(dp227
g111
F0.0
sg7
F0.0
sg8
F0.0
sg9
F0.0011581371062641002
sg10
F0.0022931113417227617
sg11
F0.0
sg12
F0.01362513649425781
ssg17
(dp228
g111
F0.0
sg7
F3.330319251435178e-05
sg8
F0.13063753729419006
sg9
F0.009436276101441866
sg10
F0.002371486725699252
sg11
F0.0
sg12
F0.018196969162671484
ssg19
(dp229
g111
F0.0
sg7
F0.0035436247482866614
sg8
F0.2770532307575171
sg9
F0.01373705184241278
sg10
F0.005553897898623958
sg11
F2.23606797749979
sg12
F0.05359398059561346
ssss.