(dp0
S'controlComponentYields'
p1
(dp2
S'FPF'
p3
(dp4
S'eee'
p5
(dp6
S'VVV'
p7
F0.0003252448213970638
sS'ZG'
p8
F0.015149288810789585
sS'TTV'
p9
F0.0008057608829403762
sS'ZZ'
p10
F0.0030629465909441933
sS'data'
p11
F-0.38949474692344666
sS'WZ'
p12
F0.024052519351243973
ssS'eem'
p13
(dp14
g7
F0.0006095897679188056
sg8
F0.045155592262744904
sg9
F0.0032059971417766064
sg10
F0.00664653824060224
sg11
F-0.5033571720123291
sg12
F0.029282541945576668
ssS'mmm'
p15
(dp16
g7
F0.0009829052251006942
sg8
F0.09812634438276291
sg9
F0.0008355246391147375
sg10
F0.005294023503665812
sg11
F-0.7265756130218506
sg12
F0.06961330771446228
ssS'mme'
p17
(dp18
g7
F0.00017293878227064852
sg8
F0.03269908204674721
sg9
F0.0035579230170696974
sg10
F0.0021932484523858875
sg11
F-0.22242778539657593
sg12
F0.022114736959338188
ssS'wz'
p19
(dp20
g7
F0.002090678596687212
sg8
F0.1911303075030446
sg9
F0.008405205680901418
sg10
F0.017196756787598133
sg11
F-1.8418553173542023
sg12
F0.1450631059706211
sssS'PPF'
p21
(dp22
g5
(dp23
g7
F-0.014399266510736197
sg8
F-0.12857955694198608
sg9
F-0.027717998018488288
sg10
F-0.11142429365618511
sg11
F11.013927459716797
sg12
F-0.9957062005996704
ssg13
(dp24
g7
F-0.023209836683236063
sg8
F0.024357836693525314
sg9
F-0.0891923219896853
sg10
F-0.19520390542441213
sg11
F15.224560737609863
sg12
F-1.6839618682861328
ssg15
(dp25
g7
F-0.04505454679019749
sg8
F0.007956641726195812
sg9
F-0.1152220806106925
sg10
F-0.2866549036697581
sg11
F22.12915462255478
sg12
F-2.6811113357543945
ssg17
(dp26
g7
F-0.025645017973147333
sg8
F-0.24403731524944305
sg9
F-0.02973253303207457
sg10
F-0.16855600375288304
sg11
F18.562074452638626
sg12
F-1.7202000617980957
ssg19
(dp27
g7
F-0.10830866795731708
sg8
F-0.340302393771708
sg9
F-0.26186493365094066
sg10
F-0.7618391065032384
sg11
F66.92971727252007
sg12
F-7.0809794664382935
sssS'PFF'
p28
(dp29
g5
(dp30
g7
F0.0006287054457061458
sg8
F0.006713290698826313
sg9
F0.0011116244459117297
sg10
F0.00479395668997995
sg11
F-0.8696860074996948
sg12
F0.04024408012628555
ssg13
(dp31
g7
F0.002145952188584488
sg8
F0.0
sg9
F0.002407012041658163
sg10
F0.006121404192526825
sg11
F-0.6543291807174683
sg12
F0.05887888744473457
ssg15
(dp32
g7
F0.0008780603515186058
sg8
F0.029033711180090904
sg9
F0.012994934106245637
sg10
F0.018135065402930195
sg11
F-1.47024405002594
sg12
F0.21206393837928772
ssg17
(dp33
g7
F0.0008699172030901536
sg8
F-0.003728248178958893
sg9
F0.002420592791168019
sg10
F0.009409723404187716
sg11
F-1.4375789985060692
sg12
F0.09454408288002014
ssg19
(dp34
g7
F0.004522635188899393
sg8
F0.032018753699958324
sg9
F0.01893416338498355
sg10
F0.03846014968962469
sg11
F-4.431838236749172
sg12
F0.405730988830328
sssS'FFP'
p35
(dp36
g5
(dp37
g7
F7.28288827351875e-05
sg8
F0.0
sg9
F-0.001012527267448604
sg10
F0.0043158629996469244
sg11
F-0.44380271434783936
sg12
F0.03955383971333504
ssg13
(dp38
g7
F4.8717080517235445e-05
sg8
F0.0
sg9
F0.0031529914122074842
sg10
F0.004772645406774245
sg11
F-0.5483260154724121
sg12
F0.046322714537382126
ssg15
(dp39
g7
F0.00033091862133005634
sg8
F0.03465772792696953
sg9
F0.0060252080438658595
sg10
F0.0070389287429861724
sg11
F-1.5993937253952026
sg12
F0.04696906358003616
ssg17
(dp40
g7
F-8.993977098725736e-05
sg8
F0.0
sg9
F0.0006826276076026261
sg10
F0.004106172200408764
sg11
F-0.3369804918766022
sg12
F0.026058712974190712
ssg19
(dp41
g7
F0.00036252481359522193
sg8
F0.03465772792696953
sg9
F0.008848299796227366
sg10
F0.020233609349816106
sg11
F-2.9285029470920563
sg12
F0.15890433080494404
sssS'PFP'
p42
(dp43
g5
(dp44
g7
F-0.01861701102461666
sg8
F-0.2485560178756714
sg9
F-0.01734940300229937
sg10
F-0.1339068781289825
sg11
F3.028542995452881
sg12
F-1.4065929651260376
ssg13
(dp45
g7
F-0.02425569819752127
sg8
F-0.02779843471944332
sg9
F-0.04015134461224079
sg10
F-0.18789735286145515
sg11
F4.423095166683197
sg12
F-1.98380708694458
ssg15
(dp46
g7
F-0.08286919817328453
sg8
F-0.21942153573036194
sg9
F-0.07821189984679222
sg10
F-0.41904466254345607
sg11
F8.76783275604248
sg12
F-3.917613983154297
ssg17
(dp47
g7
F-0.043759402236901224
sg8
F-0.18562090396881104
sg9
F-0.07700149761512876
sg10
F-0.2735583222802589
sg11
F9.696595191955566
sg12
F-2.482180118560791
ssg19
(dp48
g7
F-0.16950130963232368
sg8
F-0.6813968922942877
sg9
F-0.21271414507646114
sg10
F-1.0144072158141526
sg11
F25.916066110134125
sg12
F-9.790194153785706
sssS'FPP'
p49
(dp50
g5
(dp51
g7
F-0.017292918055318296
sg8
F0.022514708340168
sg9
F-0.017395267463143682
sg10
F-0.0880802299361676
sg11
F2.064612627029419
sg12
F-0.7127153277397156
ssg13
(dp52
g7
F-0.01671574114880059
sg8
F0.0
sg9
F-0.018876560789067298
sg10
F-0.1323750319534156
sg11
F2.3176093101501465
sg12
F-1.2279378175735474
ssg15
(dp53
g7
F-0.015322579740313813
sg8
F-0.11017565429210663
sg9
F-0.024129365338012576
sg10
F-0.1026837881654501
sg11
F1.7754907608032227
sg12
F-1.1650158166885376
ssg17
(dp54
g7
F-0.01288372470298782
sg8
F-0.05669499188661575
sg9
F-0.027505395701155066
sg10
F-0.06612613587640226
sg11
F1.2465596199035645
sg12
F-0.7220368385314941
ssg19
(dp55
g7
F-0.06221496364742052
sg8
F-0.14435593783855438
sg9
F-0.08790658929137862
sg10
F-0.38926518593143555
sg11
F7.4042723178863525
sg12
F-3.8277058005332947
sssS'FFF'
p56
(dp57
g5
(dp58
g7
F-4.460511604520434e-08
sg8
F0.0008719497709535062
sg9
F9.24551859498024e-05
sg10
F-8.658970045871683e-05
sg11
F0.01606842689216137
sg12
F-0.0010341433808207512
ssg13
(dp59
g7
F-0.0001042943340507918
sg8
F-2.486983476046589e-06
sg9
F0.0
sg10
F-0.00048203223741438705
sg11
F0.0
sg12
F-0.0018651311984285712
ssg15
(dp60
g7
F0.0
sg8
F0.0
sg9
F0.0
sg10
F-0.0022757181104680058
sg11
F0.0
sg12
F-0.004907903727144003
ssg17
(dp61
g7
F0.0
sg8
F-0.005777388345450163
sg9
F-0.00020141401910223067
sg10
F-0.0001760173809088883
sg11
F0.0
sg12
F-0.00141204206738621
ssg19
(dp62
g7
F-0.00010433893916683701
sg8
F-0.004907925557972703
sg9
F-0.00010895883315242827
sg10
F-0.003020357429249998
sg11
F0.01606842689216137
sg12
F-0.009219220373779535
ssssS'controlComponentErrs'
p63
(dp64
g3
(dp65
g5
(dp66
g7
F0.00013794929641664237
sg8
F0.015048962354528534
sg9
F0.0005050741965827366
sg10
F0.0003630998298730892
sg11
F0.1304678170125551
sg12
F0.0035102364512712802
ssg13
(dp67
g7
F0.000502057317508242
sg8
F0.04515559268055823
sg9
F0.004916850172980481
sg10
F0.0015867125343876646
sg11
F0.3619144680812027
sg12
F0.00836829178684817
ssg15
(dp68
g7
F0.0008616679510659264
sg8
F0.07445981205029877
sg9
F0.002065552403020107
sg10
F0.0013974732626641608
sg11
F0.7265756336670115
sg12
F0.020216620963001534
ssg17
(dp69
g7
F9.24781728995963e-05
sg8
F0.02925280374201831
sg9
F0.001504510688545475
sg10
F0.0003280281568103687
sg11
F0.12232366870367428
sg12
F0.0046176842979371215
ssg19
(dp70
g7
F0.001010997244705651
sg8
F0.09308860808721633
sg9
F0.005564222740793327
sg10
F0.0021702608471698545
sg11
F0.831191412880491
sg12
F0.022635919217269537
sssg21
(dp71
g5
(dp72
g7
F0.0022975345991765985
sg8
F0.06216779084738985
sg9
F0.006857095956886878
sg10
F0.0034675626064213714
sg11
F1.2669899463293763
sg12
F0.035255833106179885
ssg13
(dp73
g7
F0.005862433745141498
sg8
F0.07062497440206571
sg9
F0.026866156217529902
sg10
F0.011407521553367782
sg11
F3.259659409551387
sg12
F0.1109497138858814
ssg15
(dp74
g7
F0.01014115686589605
sg8
F0.0053605063372715285
sg9
F0.029403411901893682
sg10
F0.013600001109874655
sg11
F3.9675087340240163
sg12
F0.14116221682221722
ssg17
(dp75
g7
F0.0033870649178276927
sg8
F0.08961151348584075
sg9
F0.008427329597510958
sg10
F0.004231565083058329
sg11
F1.5648925473554705
sg12
F0.04915811944264403
ssg19
(dp76
g7
F0.01240814514691366
sg8
F0.13004491380116406
sg9
F0.041284266137163954
sg10
F0.018574760070072308
sg11
F5.515492473904951
sg12
F0.18946267427825902
sssg28
(dp77
g5
(dp78
g7
F0.00017579368526400316
sg8
F0.0070360299249495484
sg9
F0.0010309110571319953
sg10
F0.0003573477564297378
sg11
F0.16540103178933688
sg12
F0.0036877543058154464
ssg13
(dp79
g7
F0.0014934558119417427
sg8
F0.0
sg9
F0.0036329749658389715
sg10
F0.0008630203828938643
sg11
F0.3865153702033505
sg12
F0.008582569924834681
ssg15
(dp80
g7
F0.0006573817420643041
sg8
F0.028252310397413428
sg9
F0.008693811376878404
sg10
F0.002562181703095759
sg11
F0.7432752526489895
sg12
F0.03497611538761306
ssg17
(dp81
g7
F0.00037591595777531684
sg8
F0.0040088670323287145
sg9
F0.0010776159183642072
sg10
F0.0007988246100612639
sg11
F0.32772455986647153
sg12
F0.008351019751154296
ssg19
(dp82
g7
F0.001683679673842653
sg8
F0.029389960441951475
sg9
F0.009539648685060787
sg10
F0.0028417243774922743
sg11
F0.914665578810366
sg12
F0.037152768629356944
sssg35
(dp83
g5
(dp84
g7
F0.00027797782056225
sg8
F0.0
sg9
F0.001267417525418139
sg10
F0.0006747920426391209
sg11
F0.1981128858346052
sg12
F0.0066484433593262384
ssg13
(dp85
g7
F0.0006833505319345656
sg8
F0.0
sg9
F0.0016259260674505594
sg10
F0.0006403455861069031
sg11
F0.22291103410028426
sg12
F0.006701656232193794
ssg15
(dp86
g7
F0.0002007065124156459
sg8
F0.03461715730655113
sg9
F0.003513562296404844
sg10
F0.0016733188401923027
sg11
F0.8047155853674717
sg12
F0.013852859383563666
ssg17
(dp87
g7
F0.0015968496524898109
sg8
F0.0
sg9
F0.005280178204986914
sg10
F0.0009857695303575535
sg11
F0.33698048519963963
sg12
F0.010307473672573942
ssg19
(dp88
g7
F0.0017704382324731564
sg8
F0.03461715730655113
sg9
F0.006668986778191182
sg10
F0.002153398309272935
sg11
F0.9219875624953249
sg12
F0.019678915670540996
sssg42
(dp89
g5
(dp90
g7
F0.0034390221898306554
sg8
F0.15270252012148802
sg9
F0.011651415796748174
sg10
F0.005255441689750108
sg11
F0.7880760350237993
sg12
F0.06203110821616479
ssg13
(dp91
g7
F0.00465178975195903
sg8
F0.044937160671667226
sg9
F0.012857599022085784
sg10
F0.006826733470709096
sg11
F0.9454629480505223
sg12
F0.07566081221960878
ssg15
(dp92
g7
F0.014059635915324897
sg8
F0.15514441231385123
sg9
F0.033985349077446936
sg10
F0.015979467822520695
sg11
F2.325621920355318
sg12
F0.16600403631570082
ssg17
(dp93
g7
F0.009930677305598162
sg8
F0.12070386113174685
sg9
F0.02131858472387313
sg10
F0.012048782029968855
sg11
F2.585944446192008
sg12
F0.12900901433521536
ssg19
(dp94
g7
F0.018159232784949776
sg8
F0.25293599748752055
sg9
F0.04370994565572387
sg10
F0.021788540509431513
sg11
F3.6892533144721393
sg12
F0.231890238572271
sssg49
(dp95
g5
(dp96
g7
F0.005014295467944126
sg8
F0.05847941995541481
sg9
F0.010532733776386402
sg10
F0.0055131308748947875
sg11
F0.8066604684560555
sg12
F0.052719724876867505
ssg13
(dp97
g7
F0.005409515848266399
sg8
F0.0
sg9
F0.012097305703265077
sg10
F0.0069427805181243715
sg11
F0.9011478075420873
sg12
F0.07252717021455352
ssg15
(dp98
g7
F0.005329254866156034
sg8
F0.10392529169722489
sg9
F0.021059797697009802
sg10
F0.00771844492071567
sg11
F1.064542130299178
sg12
F0.09026697419255689
ssg17
(dp99
g7
F0.005077039555736854
sg8
F0.05668067498518981
sg9
F0.014612107689129093
sg10
F0.005893235871780964
sg11
F0.9238407435100057
sg12
F0.06944177559543119
ssg19
(dp100
g7
F0.010420331512550587
sg8
F0.13203411577865687
sg9
F0.030237593426729013
sg10
F0.01314919900226371
sg11
F1.8572830018493913
sg12
F0.14494773760962731
sssg56
(dp101
g5
(dp102
g7
F3.173475208094461e-08
sg8
F0.0008719497887647281
sg9
F7.612783593935047e-05
sg10
F2.404701717080542e-05
sg11
F0.008582423849358443
sg12
F0.0002978655633090514
ssg13
(dp103
g7
F9.553396935841028e-05
sg8
F2.4869834589765824e-06
sg9
F0.0
sg10
F0.0002815060803354821
sg11
F0.0
sg12
F0.0012149217194554877
ssg15
(dp104
g7
F0.0
sg8
F0.0
sg9
F0.0
sg10
F0.0011160905716869247
sg11
F0.0
sg12
F0.0038561047783948984
ssg17
(dp105
g7
F0.0
sg8
F0.005777388408446179
sg9
F0.0002179166751070827
sg10
F8.528781464160318e-05
sg11
F0.0
sg12
F0.0006970537496328094
ssg19
(dp106
g7
F9.553397462928131e-05
sg8
F0.005842817765535894
sg9
F0.0002308313771880558
sg10
F0.0011544505653493557
sg11
F0.008582423849358443
sg12
F0.004113415450698753
ssssS'controlYields'
p107
(dp108
g3
(dp109
g5
(dp110
S'datadriven'
p111
F0.0
sg7
F0.01204057034192374
sg8
F0.2603234052658081
sg9
F0.023629562463611364
sg10
F0.10616816766560078
sg11
F11.0
sg12
F0.8369353413581848
ssg13
(dp112
g111
F0.0
sg7
F0.005569410968746524
sg8
F0.2199256420135498
sg9
F0.005918487382587045
sg10
F0.027209974941797554
sg11
F2.0
sg12
F0.17929303646087646
ssg15
(dp113
g111
F0.0
sg7
F0.0043526453628146555
sg8
F0.35230520367622375
sg9
F0.016182491555809975
sg10
F0.013302032835781574
sg11
F1.0
sg12
F0.16628354787826538
ssg17
(dp114
g111
F0.0
sg7
F0.0033797055075410753
sg8
F0.2440873235464096
sg9
F0.05442369729280472
sg10
F0.044064052402973175
sg11
F4.0
sg12
F0.3831990957260132
ssg19
(dp115
g111
F0.0
sg7
F0.025342332181025995
sg8
F1.0766415745019913
sg9
F0.1001542386948131
sg10
F0.19074422784615308
sg11
F18.0
sg12
F1.5657110214233398
sssg21
(dp116
g5
(dp117
g111
F0.0
sg7
F0.1538867554627359
sg8
F1.3628714084625244
sg9
F0.2910892218351364
sg10
F1.1195823894665864
sg11
F96.0
sg12
F10.42983341217041
ssg13
(dp118
g111
F0.0
sg7
F0.04202230810187757
sg8
F-0.003479798324406147
sg9
F0.1303090788424015
sg10
F0.2970289116315783
sg11
F23.0
sg12
F2.665107250213623
ssg15
(dp119
g111
F0.0
sg7
F0.0759672955609858
sg8
F-0.014424911700189114
sg9
F0.18989913538098335
sg10
F0.4418027434848204
sg11
F33.0
sg12
F4.305939674377441
ssg17
(dp120
g111
F0.0
sg7
F0.24706618301570415
sg8
F2.941089630126953
sg9
F0.28076524659991264
sg10
F1.7264683580542624
sg11
F174.0
sg12
F17.947160720825195
ssg19
(dp121
g111
F0.0
sg7
F0.5189425421413034
sg8
F4.286056328564882
sg9
F0.8920626826584339
sg10
F3.5848824026372474
sg11
F326.0
sg12
F35.34804105758667
sssg28
(dp122
g5
(dp123
g111
F0.0
sg7
F0.03662335406988859
sg8
F0.12003728002309799
sg9
F0.02242501254659146
sg10
F0.2443590849507018
sg11
F39.0
sg12
F1.900794267654419
ssg13
(dp124
g111
F0.0
sg7
F0.011441208538599312
sg8
F0.0
sg9
F0.007770490366965532
sg10
F0.05419908440671861
sg11
F4.0
sg12
F0.4997963607311249
ssg15
(dp125
g111
F0.0
sg7
F0.002396655182117513
sg8
F0.11532837152481079
sg9
F0.03552368236705661
sg10
F0.05218167226848891
sg11
F4.0
sg12
F0.5070356726646423
ssg17
(dp126
g111
F0.0
sg7
F0.016446937574073672
sg8
F-0.10924354940652847
sg9
F0.0646307528950274
sg10
F0.162884864430487
sg11
F25.0
sg12
F1.7961220741271973
ssg19
(dp127
g111
F0.0
sg7
F0.06690815536467909
sg8
F0.1261221021413803
sg9
F0.130349938175641
sg10
F0.5136247060563963
sg11
F72.0
sg12
F4.703748375177383
sssg35
(dp128
g5
(dp129
g111
F0.0
sg7
F0.005036540659602906
sg8
F0.0
sg9
F-0.019253933802247047
sg10
F0.06991981854662299
sg11
F7.0
sg12
F0.6916592121124268
ssg13
(dp130
g111
F0.0
sg7
F0.01021058346668724
sg8
F0.0
sg9
F0.05224662646651268
sg10
F0.08790619531646371
sg11
F8.0
sg12
F0.8309563994407654
ssg15
(dp131
g111
F0.0
sg7
F0.0012917239655507728
sg8
F0.11965041607618332
sg9
F0.02330871461890638
sg10
F0.01815148233436048
sg11
F4.0
sg12
F0.14216101169586182
ssg17
(dp132
g111
F0.0
sg7
F-0.00021223805379122496
sg8
F0.0
sg9
F0.008538574911653996
sg10
F0.013038148579653352
sg11
F1.0
sg12
F0.0761733129620552
ssg19
(dp133
g111
F0.0
sg7
F0.016326610038049694
sg8
F0.11965041607618332
sg9
F0.064839982194826
sg10
F0.18901564477710053
sg11
F20.0
sg12
F1.7409499362111092
sssg42
(dp134
g5
(dp135
g111
F0.0
sg7
F0.09314792393706739
sg8
F0.6865536570549011
sg9
F0.08877503778785467
sg10
F0.6695571579330135
sg11
F16.0
sg12
F6.94139289855957
ssg13
(dp136
g111
F0.0
sg7
F0.11275096889585257
sg8
F0.05217995494604111
sg9
F0.18559579737484455
sg10
F0.9090157414575515
sg11
F24.0
sg12
F9.86920166015625
ssg15
(dp137
g111
F0.0
sg7
F0.14492967654950917
sg8
F0.4634597897529602
sg9
F0.15678808838129044
sg10
F0.700326163059799
sg11
F15.0
sg12
F6.742366313934326
ssg17
(dp138
g111
F0.0
sg7
F0.0785340117290616
sg8
F0.40329062938690186
sg9
F0.13989997934550047
sg10
F0.46515539877266576
sg11
F15.0
sg12
F4.250427722930908
ssg19
(dp139
g111
F0.0
sg7
F0.4293625811114907
sg8
F1.6054840311408043
sg9
F0.5710589028894901
sg10
F2.7440544612230298
sg11
F70.0
sg12
F27.803388595581055
sssS'PPP'
p140
(dp141
g5
(dp142
g111
F0.0
sg7
F0.6265111174434423
sg8
F1.2434524297714233
sg9
F0.5579234808683395
sg10
F3.65266283848905
sg11
F49.0
sg12
F35.882877349853516
ssg13
(dp143
g111
F0.0
sg7
F0.6559595242142677
sg8
F1.0743070840835571
sg9
F0.8827710561454296
sg10
F4.955919206084218
sg11
F78.0
sg12
F50.234413146972656
ssg15
(dp144
g111
F0.0
sg7
F1.098580438643694
sg8
F0.7064563035964966
sg9
F1.4180815815925598
sg10
F7.9089970201894175
sg11
F108.0
sg12
F83.96195983886719
ssg17
(dp145
g111
F0.0
sg7
F0.7825819402933121
sg8
F0.877004086971283
sg9
F0.9727961868047714
sg10
F5.800365387199236
sg11
F83.0
sg12
F56.021446228027344
ssg19
(dp146
g111
F0.0
sg7
F3.163633020594716
sg8
F3.90121990442276
sg9
F3.8315723054111004
sg10
F22.31794445196192
sg11
F318.0
sg12
F226.1006965637207
sssg49
(dp147
g5
(dp148
g111
F0.0
sg7
F0.04537625424563885
sg8
F-0.09397394210100174
sg9
F0.06430069640191505
sg10
F0.28220541309565306
sg11
F8.0
sg12
F2.4590392112731934
ssg13
(dp149
g111
F0.0
sg7
F0.06087394632049836
sg8
F0.0
sg9
F0.06470690481364727
sg10
F0.43371285394823644
sg11
F8.0
sg12
F4.270097732543945
ssg15
(dp150
g111
F0.0
sg7
F0.025772407127078623
sg8
F0.2573954463005066
sg9
F0.032796683721244335
sg10
F0.17928535770624876
sg11
F3.0
sg12
F2.0836002826690674
ssg17
(dp151
g111
F0.0
sg7
F0.026486713555641472
sg8
F0.13255108892917633
sg9
F0.053680977784097195
sg10
F0.11706084571778774
sg11
F2.0
sg12
F1.2592964172363281
ssg19
(dp152
g111
F0.0
sg7
F0.1585093212488573
sg8
F0.2959725931286812
sg9
F0.21548526272090385
sg10
F1.012264470467926
sg11
F21.0
sg12
F10.072033643722534
sssg56
(dp153
g5
(dp154
g111
F0.0
sg7
F1.5264481135091046e-05
sg8
F-0.2443201243877411
sg9
F-0.010011464357376099
sg10
F0.01709586870856583
sg11
F5.0
sg12
F0.18211883306503296
ssg13
(dp155
g111
F0.0
sg7
F0.003918293383321725
sg8
F5.1103561418130994e-05
sg9
F0.002669523935765028
sg10
F0.006787023914512247
sg11
F0.0
sg12
F0.042769040912389755
ssg15
(dp156
g111
F0.0
sg7
F0.0
sg8
F0.0
sg9
F0.0
sg10
F0.005724258400732651
sg11
F0.0
sg12
F0.02075895108282566
ssg17
(dp157
g111
F0.0
sg7
F3.330319304950535e-05
sg8
F0.1306375414133072
sg9
F0.009706055745482445
sg10
F0.005900088581256568
sg11
F0.0
sg12
F0.04575705528259277
ssg19
(dp158
g111
F0.0
sg7
F0.003966861057506321
sg8
F-0.11363147941301577
sg9
F0.002364115323871374
sg10
F0.0355072396050673
sg11
F5.0
sg12
F0.29140388034284115
ssssS'systs'
p159
(dp160
g5
(dp161
g111
F3.2170753540373935
sg7
F0.04870182090572709
sg8
F0.08771932877076766
sg9
F0.09789465409894366
sg10
F0.5914403098419053
sg11
F0.0
sg12
F2.3460202628265643
ssg13
(dp162
g111
F4.4600300171669005
sg7
F0.04975446891750217
sg8
F0.07508613771499197
sg9
F0.1586864639394163
sg10
F0.8215133277914097
sg11
F0.0
sg12
F3.2525391429906225
ssg15
(dp163
g111
F6.078292214567045
sg7
F0.08326801163959778
sg8
F0.05975305298832797
sg9
F0.24237750948831718
sg10
F1.296468537272851
sg11
F0.0
sg12
F5.502231149268618
ssg17
(dp164
g111
F6.497405134290283
sg7
F0.058005428339377975
sg8
F0.07058430731936492
sg9
F0.1689573616769044
sg10
F0.926360524298387
sg11
F0.0
sg12
F3.6537275263359965
ssg19
(dp165
g111
F10.459605695835418
sg7
F0.1230673231042388
sg8
F0.14793640693936447
sg9
F0.34936829322267793
sg10
F1.8877659486709664
sg11
F0.0
sg12
F7.727036586361307
sssS'yields'
p166
(dp167
g5
(dp168
g111
F10.723584513457979
sg7
F0.6434366405010223
sg8
F1.1589264869689941
sg9
F0.5696847662329674
sg10
F3.5517616760043893
sg11
F49.0
sg12
F35.885128021240234
ssg13
(dp169
g111
F14.866766723889668
sg7
F0.6573439706116915
sg8
F0.9920198321342468
sg9
F0.9234545230865479
sg10
F4.93341340693587
sg11
F78.0
sg12
F49.75139617919922
ssg15
(dp170
g111
F20.260974048556818
sg7
F1.100116765126586
sg8
F0.7894428372383118
sg9
F1.4104833006858826
sg10
F7.785650027915835
sg11
F108.0
sg12
F84.16307067871094
ssg17
(dp171
g111
F21.658017114300947
sg7
F0.7663536444306374
sg8
F0.9325427412986755
sg9
F0.983224630355835
sg10
F5.563049649500272
sg11
F83.0
sg12
F55.88804244995117
ssg19
(dp172
g111
F67.50934240020541
sg7
F3.167251020669937
sg8
F3.8729318976402283
sg9
F3.8868472203612328
sg10
F21.833874760356366
sg11
F318.0
sg12
F225.68763732910156
sssS'errs'
p173
(dp174
g5
(dp175
g111
F1.732535250111135
sg7
F0.0505358024703244
sg8
F0.6098465351944761
sg9
F0.10992368002965049
sg10
F0.0602601202731672
sg11
F6.999999999999999
sg12
F0.6935450430570036
ssg13
(dp176
g111
F3.56323791852399
sg7
F0.050274920572486434
sg8
F0.4436129357743082
sg9
F0.1373601178091346
sg10
F0.07740588013659964
sg11
F8.831760866327848
sg12
F0.8455126244603751
ssg15
(dp177
g111
F4.9129299188575475
sg7
F0.0675566793704257
sg8
F0.4863056758072426
sg9
F0.15710072726556387
sg10
F0.09580478680589835
sg11
F10.392304845413264
sg12
F1.1021840099562408
ssg17
(dp178
g111
F3.20692467497588
sg7
F0.05665943701132125
sg8
F0.5824925181719521
sg9
F0.1333339490697632
sg10
F0.07600925889197331
sg11
F9.1104335791443
sg12
F0.8826926398507581
ssg19
(dp179
g111
F7.079518988989268
sg7
F0.1133826781298089
sg8
F1.0698111876979268
sg9
F0.27094205631039936
sg10
F0.1567766468173397
sg11
F17.832554500127006
sg12
F1.7860157370865273
sssS'controlErrs'
p180
(dp181
g3
(dp182
g5
(dp183
g111
F0.0
sg7
F0.004840473886855525
sg8
F0.2535216334871636
sg9
F0.02404567661184702
sg10
F0.00970538500858989
sg11
F3.3166247903554
sg12
F0.09555738285549699
ssg13
(dp184
g111
F0.0
sg7
F0.004872695545785305
sg8
F0.21992564831405242
sg9
F0.014436972293392103
sg10
F0.004901065527568081
sg11
F1.4142135623730951
sg12
F0.04340669771425341
ssg15
(dp185
g111
F0.0
sg7
F0.0037920385810994773
sg8
F0.27519464951078576
sg9
F0.01381722815090193
sg10
F0.0034248268903841745
sg11
F1.0
sg12
F0.04503350930071758
ssg17
(dp186
g111
F0.0
sg7
F0.0019332056310759518
sg8
F0.18037830034019844
sg9
F0.020925558259156044
sg10
F0.006076067749317077
sg11
F2.0
sg12
F0.0656910767353413
ssg19
(dp187
g111
F0.0
sg7
F0.008080234522822768
sg8
F0.47000950605848285
sg9
F0.037622008385426585
sg10
F0.01291754543223546
sg11
F4.242640687119285
sg12
F0.13175237890541072
sssg21
(dp188
g5
(dp189
g111
F0.0
sg7
F0.02252669175569769
sg8
F0.5970476353380968
sg9
F0.06299208320229872
sg10
F0.03097680983101009
sg11
F9.797958971132712
sg12
F0.3390862231785752
ssg13
(dp190
g111
F0.0
sg7
F0.010194629012707606
sg8
F0.10242062089425358
sg9
F0.03757091935007421
sg10
F0.01674154631179258
sg11
F4.795831523312719
sg12
F0.1702334470564326
ssg15
(dp191
g111
F0.0
sg7
F0.016532232498104163
sg8
F0.009807947238883268
sg9
F0.049894407863087666
sg10
F0.020214961786192736
sg11
F5.7445626465380295
sg12
F0.22095151979862612
ssg17
(dp192
g111
F0.0
sg7
F0.030254455489761325
sg8
F1.008126101882375
sg9
F0.07877635000000163
sg10
F0.03891942471075522
sg11
F13.19090595827292
sg12
F0.46424411812972227
ssg19
(dp193
g111
F0.0
sg7
F0.04242674970482983
sg8
F1.176167630728193
sg9
F0.11863701691422458
sg10
F0.056242407665833764
sg11
F18.05547008526779
sg12
F0.638984404008104
sssg28
(dp194
g5
(dp195
g111
F0.0
sg7
F0.010608283405904575
sg8
F0.13278212330373093
sg9
F0.025254582954126137
sg10
F0.014604522803744878
sg11
F6.244997998398398
sg12
F0.14231982378219257
ssg13
(dp196
g111
F0.0
sg7
F0.006337123173035899
sg8
F0.0
sg9
F0.020673233928708352
sg10
F0.006849488030423031
sg11
F2.0
sg12
F0.07107936919666277
ssg15
(dp197
g111
F0.0
sg7
F0.001591739070063767
sg8
F0.11344225403643761
sg9
F0.019872264559187662
sg10
F0.006816240380039196
sg11
F2.0
sg12
F0.07660621832000135
ssg17
(dp198
g111
F0.0
sg7
F0.006790125316652173
sg8
F0.1161892493784756
sg9
F0.026470624994824814
sg10
F0.011644749004411675
sg11
F5.0
sg12
F0.1423851580311126
ssg19
(dp199
g111
F0.0
sg7
F0.014189229789288325
sg8
F0.2097621961675851
sg9
F0.046484163406314276
sg10
F0.021030189844560038
sg11
F8.48528137423857
sg12
F0.2268242819444745
sssg35
(dp200
g5
(dp201
g111
F0.0
sg7
F0.005192087572911478
sg8
F0.0
sg9
F0.018436067613966045
sg10
F0.007934064053833425
sg11
F2.6457513110645907
sg12
F0.09001097314304896
ssg13
(dp202
g111
F0.0
sg7
F0.007778279341828612
sg8
F0.0
sg9
F0.026042385492940894
sg10
F0.009361159205785818
sg11
F2.8284271247461903
sg12
F0.1002830695621454
ssg15
(dp203
g111
F0.0
sg7
F0.0008961825157948336
sg8
F0.11950580713485597
sg9
F0.013590892694499462
sg10
F0.004078146343939439
sg11
F2.0
sg12
F0.04007148443685172
ssg17
(dp204
g111
F0.0
sg7
F0.007138244416186227
sg8
F0.0
sg9
F0.017346656901860723
sg10
F0.0032284658001419447
sg11
F1.0
sg12
F0.02963615600931183
ssg19
(dp205
g111
F0.0
sg7
F0.011799028745245507
sg8
F0.11950580713485597
sg9
F0.03877774234188908
sg10
F0.01332797595704888
sg11
F4.47213595499958
sg12
F0.14367565881159514
sssg42
(dp206
g5
(dp207
g111
F0.0
sg7
F0.017161018256099496
sg8
F0.39227921492579265
sg9
F0.04768584950701786
sg10
F0.024032218321003395
sg11
F4.0
sg12
F0.2736419390747278
ssg13
(dp208
g111
F0.0
sg7
F0.019816137532264293
sg8
F0.14433729025357248
sg9
F0.056247299001605564
sg10
F0.02927966576953339
sg11
F4.898979485566356
sg12
F0.3350102351073333
ssg15
(dp209
g111
F0.0
sg7
F0.023242024367119113
sg8
F0.32540097036017895
sg9
F0.06005715710379436
sg10
F0.025742386169542535
sg11
F3.872983346207417
sg12
F0.27655150081175855
ssg17
(dp210
g111
F0.0
sg7
F0.017444452543679403
sg8
F0.27162879252421257
sg9
F0.035292371795721644
sg10
F0.0197596086532177
sg11
F3.872983346207417
sg12
F0.21506057231631887
ssg19
(dp211
g111
F0.0
sg7
F0.03913668963407911
sg8
F0.5953017959489523
sg9
F0.10144019181044198
sg10
F0.049879443910634445
sg11
F8.366600265340756
sg12
F0.5566359230354312
sssg140
(dp212
g5
(dp213
g111
F0.0
sg7
F0.045476388299289475
sg8
F0.5737829723761486
sg9
F0.09856024006071515
sg10
F0.0554503593150589
sg11
F6.999999999999999
sg12
F0.6269575541243112
ssg13
(dp214
g111
F0.0
sg7
F0.04522204012899162
sg8
F0.4414828174209366
sg9
F0.12195392386363432
sg10
F0.06973500755941146
sg11
F8.831760866327848
sg12
F0.7674573611168847
ssg15
(dp215
g111
F0.0
sg7
F0.06129469849921315
sg8
F0.45492448538463
sg9
F0.14094568081442152
sg10
F0.0871311152431636
sg11
F10.392304845413264
sg12
F0.9924607882655565
ssg17
(dp216
g111
F0.0
sg7
F0.052230524965616525
sg8
F0.5272601595604193
sg9
F0.11862878945162039
sg10
F0.0706034157022864
sg11
F9.1104335791443
sg12
F0.7992638687965282
ssg19
(dp217
g111
F0.0
sg7
F0.10294757213489406
sg8
F1.004536480536613
sg9
F0.24192014197573666
sg10
F0.14322844403199955
sg11
F17.832554500127006
sg12
F1.6142700282215223
sssg49
(dp218
g5
(dp219
g111
F0.0
sg7
F0.012893000482050844
sg8
F0.24408674877418626
sg9
F0.033917914575504124
sg10
F0.015323777607652186
sg11
F2.8284271247461903
sg12
F0.16332935413669405
ssg13
(dp220
g111
F0.0
sg7
F0.017932519573558323
sg8
F0.0
sg9
F0.03704436415990583
sg10
F0.020143669131548247
sg11
F2.8284271247461903
sg12
F0.2185034096774797
ssg15
(dp221
g111
F0.0
sg7
F0.010106243597434809
sg8
F0.24300232845686717
sg9
F0.038574197007830754
sg10
F0.012967615562467656
sg11
F1.7320508075688772
sg12
F0.15379474366562199
ssg17
(dp222
g111
F0.0
sg7
F0.009783681083663438
sg8
F0.13253359710730797
sg9
F0.0287018699903091
sg10
F0.009802409054892726
sg11
F1.4142135623730951
sg12
F0.11719785389654437
ssg19
(dp223
g111
F0.0
sg7
F0.026185134998386806
sg8
F0.36904420727714193
sg9
F0.06953039523044907
sg10
F0.030080422917663052
sg11
F4.582575694955841
sg12
F0.3343775980841484
sssg56
(dp224
g5
(dp225
g111
F0.0
sg7
F1.0813670380213762e-05
sg8
F0.24432012588264823
sg9
F0.009549641231268712
sg10
F0.003603491400543477
sg11
F2.23606797749979
sg12
F0.04324848160609988
ssg13
(dp226
g111
F0.0
sg7
F0.003543451751974473
sg8
F5.1103562030736724e-05
sg9
F0.0026695238256363844
sg10
F0.0026416515959908475
sg11
F0.0
sg12
F0.022025202919734022
ssg15
(dp227
g111
F0.0
sg7
F0.0
sg8
F0.0
sg9
F0.0
sg10
F0.0022929210599490026
sg11
F0.0
sg12
F0.01362513649425781
ssg17
(dp228
g111
F0.0
sg7
F3.330319251435178e-05
sg8
F0.13063753729419006
sg9
F0.009427101593780912
sg10
F0.002370838806791761
sg11
F0.0
sg12
F0.021289410332783493
ssg19
(dp229
g111
F0.0
sg7
F0.0035436247482866614
sg8
F0.2770532307575171
sg9
F0.013681821865565064
sg10
F0.005553542748853134
sg11
F2.23606797749979
sg12
F0.05472133095688923
ssss.